
code.elf:     file format elf32-littleriscv


Disassembly of section .text:

1ffffff0 <start-0x10>:
1ffffff0:	ffff                	0xffff
1ffffff2:	4cff                	0x4cff
1ffffff4:	0000                	unimp
1ffffff6:	2000                	fld	f8,0(x8)
1ffffff8:	0d88                	addi	x10,x2,720
1ffffffa:	0000                	unimp
1ffffffc:	0000                	unimp
1ffffffe:	2000                	fld	f8,0(x8)

20000000 <start>:
20000000:	20020137          	lui	x2,0x20020
20000004:	00001517          	auipc	x10,0x1
20000008:	d8450513          	addi	x10,x10,-636 # 20000d88 <udat>
2000000c:	00001597          	auipc	x11,0x1
20000010:	ea458593          	addi	x11,x11,-348 # 20000eb0 <_ebss>
20000014:	00b55863          	bge	x10,x11,20000024 <end_init_bss>

20000018 <loop_init_bss>:
20000018:	00052023          	sw	x0,0(x10)
2000001c:	00450513          	addi	x10,x10,4
20000020:	feb54ce3          	blt	x10,x11,20000018 <loop_init_bss>

20000024 <end_init_bss>:
20000024:	269000ef          	jal	x1,20000a8c <main>

20000028 <loop>:
20000028:	0000006f          	j	20000028 <loop>

2000002c <delay_loop>:
2000002c:	fff50513          	addi	x10,x10,-1
20000030:	fe051ee3          	bnez	x10,2000002c <delay_loop>
20000034:	00008067          	ret

20000038 <irq3_handler>:
20000038:	fec10113          	addi	x2,x2,-20 # 2001ffec <_ebss+0x1f13c>
2000003c:	00c12623          	sw	x12,12(x2)
20000040:	20001637          	lui	x12,0x20001
20000044:	00d12423          	sw	x13,8(x2)
20000048:	d8261683          	lh	x13,-638(x12) # 20000d82 <y1.1>
2000004c:	00e12223          	sw	x14,4(x2)
20000050:	00b12823          	sw	x11,16(x2)
20000054:	41f6d713          	srai	x14,x13,0x1f
20000058:	03f77713          	andi	x14,x14,63
2000005c:	00d70733          	add	x14,x14,x13
20000060:	00f12023          	sw	x15,0(x2)
20000064:	200015b7          	lui	x11,0x20001
20000068:	00169793          	slli	x15,x13,0x1
2000006c:	40675713          	srai	x14,x14,0x6
20000070:	40e787b3          	sub	x15,x15,x14
20000074:	d8059703          	lh	x14,-640(x11) # 20000d80 <_etext>
20000078:	d8d59023          	sh	x13,-640(x11)
2000007c:	40e78733          	sub	x14,x15,x14
20000080:	41f75793          	srai	x15,x14,0x1f
20000084:	0ff7f793          	andi	x15,x15,255
20000088:	00e787b3          	add	x15,x15,x14
2000008c:	4087d793          	srai	x15,x15,0x8
20000090:	05a78793          	addi	x15,x15,90
20000094:	d8e61123          	sh	x14,-638(x12)
20000098:	0ff7f793          	andi	x15,x15,255
2000009c:	e0000737          	lui	x14,0xe0000
200000a0:	02f70023          	sb	x15,32(x14) # e0000020 <_ebss+0xbffff170>
200000a4:	01012583          	lw	x11,16(x2)
200000a8:	00c12603          	lw	x12,12(x2)
200000ac:	00812683          	lw	x13,8(x2)
200000b0:	00412703          	lw	x14,4(x2)
200000b4:	00012783          	lw	x15,0(x2)
200000b8:	01410113          	addi	x2,x2,20
200000bc:	30200073          	mret

200000c0 <irq2_handler>:
200000c0:	ff010113          	addi	x2,x2,-16
200000c4:	00f12023          	sw	x15,0(x2)
200000c8:	e00007b7          	lui	x15,0xe0000
200000cc:	00e12223          	sw	x14,4(x2)
200000d0:	0047a703          	lw	x14,4(x15) # e0000004 <_ebss+0xbffff154>
200000d4:	00c12623          	sw	x12,12(x2)
200000d8:	00d12423          	sw	x13,8(x2)
200000dc:	00177713          	andi	x14,x14,1
200000e0:	04070a63          	beqz	x14,20000134 <irq2_handler+0x74>
200000e4:	20001737          	lui	x14,0x20001
200000e8:	0007a603          	lw	x12,0(x15)
200000ec:	eac74783          	lbu	x15,-340(x14) # 20000eac <wrix>
200000f0:	0ff7f693          	andi	x13,x15,255
200000f4:	00168793          	addi	x15,x13,1
200000f8:	0ff7f793          	andi	x15,x15,255
200000fc:	eaf70623          	sb	x15,-340(x14)
20000100:	200017b7          	lui	x15,0x20001
20000104:	d8878793          	addi	x15,x15,-632 # 20000d88 <udat>
20000108:	00d787b3          	add	x15,x15,x13
2000010c:	00c78023          	sb	x12,0(x15)
20000110:	eac74783          	lbu	x15,-340(x14)
20000114:	01f7f793          	andi	x15,x15,31
20000118:	eaf70623          	sb	x15,-340(x14)
2000011c:	00c12603          	lw	x12,12(x2)
20000120:	00812683          	lw	x13,8(x2)
20000124:	00412703          	lw	x14,4(x2)
20000128:	00012783          	lw	x15,0(x2)
2000012c:	01010113          	addi	x2,x2,16
20000130:	30200073          	mret
20000134:	20001737          	lui	x14,0x20001
20000138:	d8474683          	lbu	x13,-636(x14) # 20000d84 <a.2>
2000013c:	00d7a023          	sw	x13,0(x15)
20000140:	d8474783          	lbu	x15,-636(x14)
20000144:	00178793          	addi	x15,x15,1
20000148:	0ff7f693          	andi	x13,x15,255
2000014c:	01879793          	slli	x15,x15,0x18
20000150:	4187d793          	srai	x15,x15,0x18
20000154:	0007c663          	bltz	x15,20000160 <irq2_handler+0xa0>
20000158:	d8d70223          	sb	x13,-636(x14)
2000015c:	fc1ff06f          	j	2000011c <irq2_handler+0x5c>
20000160:	02000793          	li	x15,32
20000164:	d8f70223          	sb	x15,-636(x14)
20000168:	fb5ff06f          	j	2000011c <irq2_handler+0x5c>

2000016c <_putch>:
2000016c:	e0000737          	lui	x14,0xe0000
20000170:	00472783          	lw	x15,4(x14) # e0000004 <_ebss+0xbffff154>
20000174:	0027f793          	andi	x15,x15,2
20000178:	fe078ce3          	beqz	x15,20000170 <_putch+0x4>
2000017c:	00a72023          	sw	x10,0(x14)
20000180:	00008067          	ret

20000184 <printchar>:
20000184:	00050793          	mv	x15,x10
20000188:	00058513          	mv	x10,x11
2000018c:	00078e63          	beqz	x15,200001a8 <printchar+0x24>
20000190:	0007a703          	lw	x14,0(x15)
20000194:	00b70023          	sb	x11,0(x14)
20000198:	0007a703          	lw	x14,0(x15)
2000019c:	00170713          	addi	x14,x14,1
200001a0:	00e7a023          	sw	x14,0(x15)
200001a4:	00008067          	ret
200001a8:	fc5ff06f          	j	2000016c <_putch>

200001ac <prints>:
200001ac:	fe410113          	addi	x2,x2,-28
200001b0:	00812a23          	sw	x8,20(x2)
200001b4:	00912823          	sw	x9,16(x2)
200001b8:	00112c23          	sw	x1,24(x2)
200001bc:	00058493          	mv	x9,x11
200001c0:	02000413          	li	x8,32
200001c4:	02c05a63          	blez	x12,200001f8 <prints+0x4c>
200001c8:	00000793          	li	x15,0
200001cc:	0080006f          	j	200001d4 <prints+0x28>
200001d0:	00178793          	addi	x15,x15,1
200001d4:	00f48733          	add	x14,x9,x15
200001d8:	00074703          	lbu	x14,0(x14)
200001dc:	fe071ae3          	bnez	x14,200001d0 <prints+0x24>
200001e0:	02c7d663          	bge	x15,x12,2000020c <prints+0x60>
200001e4:	40f60633          	sub	x12,x12,x15
200001e8:	0026f793          	andi	x15,x13,2
200001ec:	02000413          	li	x8,32
200001f0:	00078463          	beqz	x15,200001f8 <prints+0x4c>
200001f4:	03000413          	li	x8,48
200001f8:	0016f693          	andi	x13,x13,1
200001fc:	00000793          	li	x15,0
20000200:	04069663          	bnez	x13,2000024c <prints+0xa0>
20000204:	00060793          	mv	x15,x12
20000208:	0300006f          	j	20000238 <prints+0x8c>
2000020c:	00000613          	li	x12,0
20000210:	fd9ff06f          	j	200001e8 <prints+0x3c>
20000214:	00040593          	mv	x11,x8
20000218:	00c12423          	sw	x12,8(x2)
2000021c:	00f12223          	sw	x15,4(x2)
20000220:	00a12023          	sw	x10,0(x2)
20000224:	f61ff0ef          	jal	x1,20000184 <printchar>
20000228:	00412783          	lw	x15,4(x2)
2000022c:	00012503          	lw	x10,0(x2)
20000230:	00812603          	lw	x12,8(x2)
20000234:	fff78793          	addi	x15,x15,-1
20000238:	fcf04ee3          	bgtz	x15,20000214 <prints+0x68>
2000023c:	00060793          	mv	x15,x12
20000240:	00065463          	bgez	x12,20000248 <prints+0x9c>
20000244:	00000793          	li	x15,0
20000248:	40f60633          	sub	x12,x12,x15
2000024c:	00078713          	mv	x14,x15
20000250:	02c0006f          	j	2000027c <prints+0xd0>
20000254:	00c12623          	sw	x12,12(x2)
20000258:	00f12423          	sw	x15,8(x2)
2000025c:	00e12223          	sw	x14,4(x2)
20000260:	00a12023          	sw	x10,0(x2)
20000264:	f21ff0ef          	jal	x1,20000184 <printchar>
20000268:	00412703          	lw	x14,4(x2)
2000026c:	00012503          	lw	x10,0(x2)
20000270:	00812783          	lw	x15,8(x2)
20000274:	00c12603          	lw	x12,12(x2)
20000278:	00170713          	addi	x14,x14,1
2000027c:	40f706b3          	sub	x13,x14,x15
20000280:	00d486b3          	add	x13,x9,x13
20000284:	0006c583          	lbu	x11,0(x13)
20000288:	fc0596e3          	bnez	x11,20000254 <prints+0xa8>
2000028c:	00060493          	mv	x9,x12
20000290:	02904263          	bgtz	x9,200002b4 <prints+0x108>
20000294:	00065463          	bgez	x12,2000029c <prints+0xf0>
20000298:	00000613          	li	x12,0
2000029c:	01812083          	lw	x1,24(x2)
200002a0:	01412403          	lw	x8,20(x2)
200002a4:	01012483          	lw	x9,16(x2)
200002a8:	00e60533          	add	x10,x12,x14
200002ac:	01c10113          	addi	x2,x2,28
200002b0:	00008067          	ret
200002b4:	00040593          	mv	x11,x8
200002b8:	00c12423          	sw	x12,8(x2)
200002bc:	00e12223          	sw	x14,4(x2)
200002c0:	00a12023          	sw	x10,0(x2)
200002c4:	ec1ff0ef          	jal	x1,20000184 <printchar>
200002c8:	00812603          	lw	x12,8(x2)
200002cc:	00412703          	lw	x14,4(x2)
200002d0:	00012503          	lw	x10,0(x2)
200002d4:	fff48493          	addi	x9,x9,-1
200002d8:	fb9ff06f          	j	20000290 <prints+0xe4>

200002dc <printi>:
200002dc:	fcc10113          	addi	x2,x2,-52
200002e0:	02812623          	sw	x8,44(x2)
200002e4:	00058313          	mv	x6,x11
200002e8:	02112823          	sw	x1,48(x2)
200002ec:	02912423          	sw	x9,40(x2)
200002f0:	00a12023          	sw	x10,0(x2)
200002f4:	00060593          	mv	x11,x12
200002f8:	00068413          	mv	x8,x13
200002fc:	00070613          	mv	x12,x14
20000300:	00078693          	mv	x13,x15
20000304:	02031663          	bnez	x6,20000330 <printi+0x54>
20000308:	03000793          	li	x15,48
2000030c:	01c10593          	addi	x11,x2,28
20000310:	00f10e23          	sb	x15,28(x2)
20000314:	00010ea3          	sb	x0,29(x2)
20000318:	e95ff0ef          	jal	x1,200001ac <prints>
2000031c:	03012083          	lw	x1,48(x2)
20000320:	02c12403          	lw	x8,44(x2)
20000324:	02812483          	lw	x9,40(x2)
20000328:	03410113          	addi	x2,x2,52
2000032c:	00008067          	ret
20000330:	00030793          	mv	x15,x6
20000334:	00040a63          	beqz	x8,20000348 <printi+0x6c>
20000338:	00a00713          	li	x14,10
2000033c:	0ee59263          	bne	x11,x14,20000420 <printi+0x144>
20000340:	0e035063          	bgez	x6,20000420 <printi+0x144>
20000344:	406007b3          	neg	x15,x6
20000348:	03412703          	lw	x14,52(x2)
2000034c:	020103a3          	sb	x0,39(x2)
20000350:	02710313          	addi	x6,x2,39
20000354:	fc670713          	addi	x14,x14,-58
20000358:	00e12223          	sw	x14,4(x2)
2000035c:	00078513          	mv	x10,x15
20000360:	00d12c23          	sw	x13,24(x2)
20000364:	00c12a23          	sw	x12,20(x2)
20000368:	00612823          	sw	x6,16(x2)
2000036c:	00b12623          	sw	x11,12(x2)
20000370:	00f12423          	sw	x15,8(x2)
20000374:	6b4000ef          	jal	x1,20000a28 <__umodsi3>
20000378:	00900713          	li	x14,9
2000037c:	00812783          	lw	x15,8(x2)
20000380:	00c12583          	lw	x11,12(x2)
20000384:	01012303          	lw	x6,16(x2)
20000388:	01412603          	lw	x12,20(x2)
2000038c:	01812683          	lw	x13,24(x2)
20000390:	00a77663          	bgeu	x14,x10,2000039c <printi+0xc0>
20000394:	00412703          	lw	x14,4(x2)
20000398:	00e50533          	add	x10,x10,x14
2000039c:	03050513          	addi	x10,x10,48
200003a0:	fea30fa3          	sb	x10,-1(x6)
200003a4:	00078513          	mv	x10,x15
200003a8:	00d12c23          	sw	x13,24(x2)
200003ac:	00c12a23          	sw	x12,20(x2)
200003b0:	fff30493          	addi	x9,x6,-1
200003b4:	00612823          	sw	x6,16(x2)
200003b8:	00b12623          	sw	x11,12(x2)
200003bc:	00f12423          	sw	x15,8(x2)
200003c0:	620000ef          	jal	x1,200009e0 <__udivsi3>
200003c4:	00812783          	lw	x15,8(x2)
200003c8:	00c12583          	lw	x11,12(x2)
200003cc:	01012303          	lw	x6,16(x2)
200003d0:	01412603          	lw	x12,20(x2)
200003d4:	01812683          	lw	x13,24(x2)
200003d8:	04b7f863          	bgeu	x15,x11,20000428 <printi+0x14c>
200003dc:	02040863          	beqz	x8,2000040c <printi+0x130>
200003e0:	04060a63          	beqz	x12,20000434 <printi+0x158>
200003e4:	0026f793          	andi	x15,x13,2
200003e8:	04078663          	beqz	x15,20000434 <printi+0x158>
200003ec:	00012503          	lw	x10,0(x2)
200003f0:	02d00593          	li	x11,45
200003f4:	00d12423          	sw	x13,8(x2)
200003f8:	00c12223          	sw	x12,4(x2)
200003fc:	d89ff0ef          	jal	x1,20000184 <printchar>
20000400:	00412603          	lw	x12,4(x2)
20000404:	00812683          	lw	x13,8(x2)
20000408:	fff60613          	addi	x12,x12,-1
2000040c:	00012503          	lw	x10,0(x2)
20000410:	00048593          	mv	x11,x9
20000414:	d99ff0ef          	jal	x1,200001ac <prints>
20000418:	00850533          	add	x10,x10,x8
2000041c:	f01ff06f          	j	2000031c <printi+0x40>
20000420:	00000413          	li	x8,0
20000424:	f25ff06f          	j	20000348 <printi+0x6c>
20000428:	00050793          	mv	x15,x10
2000042c:	00048313          	mv	x6,x9
20000430:	f2dff06f          	j	2000035c <printi+0x80>
20000434:	02d00793          	li	x15,45
20000438:	fef48fa3          	sb	x15,-1(x9)
2000043c:	00000413          	li	x8,0
20000440:	ffe30493          	addi	x9,x6,-2
20000444:	fc9ff06f          	j	2000040c <printi+0x130>

20000448 <print>:
20000448:	fe010113          	addi	x2,x2,-32
2000044c:	00812c23          	sw	x8,24(x2)
20000450:	00912a23          	sw	x9,20(x2)
20000454:	00112e23          	sw	x1,28(x2)
20000458:	00a12223          	sw	x10,4(x2)
2000045c:	00058313          	mv	x6,x11
20000460:	00060413          	mv	x8,x12
20000464:	00000493          	li	x9,0
20000468:	00034783          	lbu	x15,0(x6)
2000046c:	02079663          	bnez	x15,20000498 <print+0x50>
20000470:	00412783          	lw	x15,4(x2)
20000474:	00078663          	beqz	x15,20000480 <print+0x38>
20000478:	0007a783          	lw	x15,0(x15)
2000047c:	00078023          	sb	x0,0(x15)
20000480:	01c12083          	lw	x1,28(x2)
20000484:	01812403          	lw	x8,24(x2)
20000488:	00048513          	mv	x10,x9
2000048c:	01412483          	lw	x9,20(x2)
20000490:	02010113          	addi	x2,x2,32
20000494:	00008067          	ret
20000498:	02500713          	li	x14,37
2000049c:	1ae79463          	bne	x15,x14,20000644 <print+0x1fc>
200004a0:	00134683          	lbu	x13,1(x6)
200004a4:	fc0686e3          	beqz	x13,20000470 <print+0x28>
200004a8:	00130713          	addi	x14,x6,1
200004ac:	18f68a63          	beq	x13,x15,20000640 <print+0x1f8>
200004b0:	02d00613          	li	x12,45
200004b4:	00000793          	li	x15,0
200004b8:	00c69663          	bne	x13,x12,200004c4 <print+0x7c>
200004bc:	00230713          	addi	x14,x6,2
200004c0:	00100793          	li	x15,1
200004c4:	00070313          	mv	x6,x14
200004c8:	03000713          	li	x14,48
200004cc:	00034683          	lbu	x13,0(x6)
200004d0:	00130613          	addi	x12,x6,1
200004d4:	04e68e63          	beq	x13,x14,20000530 <print+0xe8>
200004d8:	00000713          	li	x14,0
200004dc:	00900593          	li	x11,9
200004e0:	00034683          	lbu	x13,0(x6)
200004e4:	00130393          	addi	x7,x6,1
200004e8:	fd068613          	addi	x12,x13,-48
200004ec:	0ff67513          	andi	x10,x12,255
200004f0:	04a5f663          	bgeu	x11,x10,2000053c <print+0xf4>
200004f4:	07300613          	li	x12,115
200004f8:	04c69e63          	bne	x13,x12,20000554 <print+0x10c>
200004fc:	00042683          	lw	x13,0(x8)
20000500:	20001637          	lui	x12,0x20001
20000504:	00440393          	addi	x7,x8,4
20000508:	b7460593          	addi	x11,x12,-1164 # 20000b74 <main+0xe8>
2000050c:	00068463          	beqz	x13,20000514 <print+0xcc>
20000510:	00068593          	mv	x11,x13
20000514:	00612623          	sw	x6,12(x2)
20000518:	00712423          	sw	x7,8(x2)
2000051c:	00078693          	mv	x13,x15
20000520:	00070613          	mv	x12,x14
20000524:	00412503          	lw	x10,4(x2)
20000528:	c85ff0ef          	jal	x1,200001ac <prints>
2000052c:	0580006f          	j	20000584 <print+0x13c>
20000530:	0027e793          	ori	x15,x15,2
20000534:	00060313          	mv	x6,x12
20000538:	f95ff06f          	j	200004cc <print+0x84>
2000053c:	00271693          	slli	x13,x14,0x2
20000540:	00e68733          	add	x14,x13,x14
20000544:	00171713          	slli	x14,x14,0x1
20000548:	00e60733          	add	x14,x12,x14
2000054c:	00038313          	mv	x6,x7
20000550:	f91ff06f          	j	200004e0 <print+0x98>
20000554:	06400613          	li	x12,100
20000558:	04c69263          	bne	x13,x12,2000059c <print+0x154>
2000055c:	06100693          	li	x13,97
20000560:	00440393          	addi	x7,x8,4
20000564:	00042583          	lw	x11,0(x8)
20000568:	00612623          	sw	x6,12(x2)
2000056c:	00d12023          	sw	x13,0(x2)
20000570:	00712423          	sw	x7,8(x2)
20000574:	00100693          	li	x13,1
20000578:	00a00613          	li	x12,10
2000057c:	00412503          	lw	x10,4(x2)
20000580:	d5dff0ef          	jal	x1,200002dc <printi>
20000584:	00812383          	lw	x7,8(x2)
20000588:	00c12303          	lw	x6,12(x2)
2000058c:	00a484b3          	add	x9,x9,x10
20000590:	00038413          	mv	x8,x7
20000594:	00130313          	addi	x6,x6,1
20000598:	ed1ff06f          	j	20000468 <print+0x20>
2000059c:	07800613          	li	x12,120
200005a0:	02c69463          	bne	x13,x12,200005c8 <print+0x180>
200005a4:	00042583          	lw	x11,0(x8)
200005a8:	00440393          	addi	x7,x8,4
200005ac:	00612623          	sw	x6,12(x2)
200005b0:	00712423          	sw	x7,8(x2)
200005b4:	06100693          	li	x13,97
200005b8:	00d12023          	sw	x13,0(x2)
200005bc:	01000613          	li	x12,16
200005c0:	00000693          	li	x13,0
200005c4:	fb9ff06f          	j	2000057c <print+0x134>
200005c8:	05800613          	li	x12,88
200005cc:	00c69e63          	bne	x13,x12,200005e8 <print+0x1a0>
200005d0:	00440393          	addi	x7,x8,4
200005d4:	00042583          	lw	x11,0(x8)
200005d8:	00612623          	sw	x6,12(x2)
200005dc:	00712423          	sw	x7,8(x2)
200005e0:	04100693          	li	x13,65
200005e4:	fd5ff06f          	j	200005b8 <print+0x170>
200005e8:	07500613          	li	x12,117
200005ec:	02c69263          	bne	x13,x12,20000610 <print+0x1c8>
200005f0:	06100693          	li	x13,97
200005f4:	00440393          	addi	x7,x8,4
200005f8:	00042583          	lw	x11,0(x8)
200005fc:	00612623          	sw	x6,12(x2)
20000600:	00d12023          	sw	x13,0(x2)
20000604:	00712423          	sw	x7,8(x2)
20000608:	00000693          	li	x13,0
2000060c:	f6dff06f          	j	20000578 <print+0x130>
20000610:	06300613          	li	x12,99
20000614:	f8c690e3          	bne	x13,x12,20000594 <print+0x14c>
20000618:	00042683          	lw	x13,0(x8)
2000061c:	00440393          	addi	x7,x8,4
20000620:	00612623          	sw	x6,12(x2)
20000624:	00d10823          	sb	x13,16(x2)
20000628:	00712423          	sw	x7,8(x2)
2000062c:	000108a3          	sb	x0,17(x2)
20000630:	00078693          	mv	x13,x15
20000634:	00070613          	mv	x12,x14
20000638:	01010593          	addi	x11,x2,16
2000063c:	ee9ff06f          	j	20000524 <print+0xdc>
20000640:	00070313          	mv	x6,x14
20000644:	00034583          	lbu	x11,0(x6)
20000648:	00412503          	lw	x10,4(x2)
2000064c:	00612423          	sw	x6,8(x2)
20000650:	00148493          	addi	x9,x9,1
20000654:	b31ff0ef          	jal	x1,20000184 <printchar>
20000658:	00812303          	lw	x6,8(x2)
2000065c:	f39ff06f          	j	20000594 <print+0x14c>

20000660 <_puts>:
20000660:	ff410113          	addi	x2,x2,-12
20000664:	00812223          	sw	x8,4(x2)
20000668:	00112423          	sw	x1,8(x2)
2000066c:	00050413          	mv	x8,x10
20000670:	00044503          	lbu	x10,0(x8)
20000674:	00051a63          	bnez	x10,20000688 <_puts+0x28>
20000678:	00812083          	lw	x1,8(x2)
2000067c:	00412403          	lw	x8,4(x2)
20000680:	00c10113          	addi	x2,x2,12
20000684:	00008067          	ret
20000688:	00140413          	addi	x8,x8,1
2000068c:	ae1ff0ef          	jal	x1,2000016c <_putch>
20000690:	fe1ff06f          	j	20000670 <_puts+0x10>

20000694 <_printf>:
20000694:	fdc10113          	addi	x2,x2,-36
20000698:	00b12823          	sw	x11,16(x2)
2000069c:	00c12a23          	sw	x12,20(x2)
200006a0:	00050593          	mv	x11,x10
200006a4:	01010613          	addi	x12,x2,16
200006a8:	00000513          	li	x10,0
200006ac:	00112623          	sw	x1,12(x2)
200006b0:	00d12c23          	sw	x13,24(x2)
200006b4:	00e12e23          	sw	x14,28(x2)
200006b8:	02f12023          	sw	x15,32(x2)
200006bc:	00c12023          	sw	x12,0(x2)
200006c0:	d89ff0ef          	jal	x1,20000448 <print>
200006c4:	00c12083          	lw	x1,12(x2)
200006c8:	02410113          	addi	x2,x2,36
200006cc:	00008067          	ret

200006d0 <_sprintf>:
200006d0:	fdc10113          	addi	x2,x2,-36
200006d4:	00a12023          	sw	x10,0(x2)
200006d8:	00c12a23          	sw	x12,20(x2)
200006dc:	00010513          	mv	x10,x2
200006e0:	01410613          	addi	x12,x2,20
200006e4:	00112823          	sw	x1,16(x2)
200006e8:	00d12c23          	sw	x13,24(x2)
200006ec:	00e12e23          	sw	x14,28(x2)
200006f0:	02f12023          	sw	x15,32(x2)
200006f4:	00c12223          	sw	x12,4(x2)
200006f8:	d51ff0ef          	jal	x1,20000448 <print>
200006fc:	01012083          	lw	x1,16(x2)
20000700:	02410113          	addi	x2,x2,36
20000704:	00008067          	ret

20000708 <_getch>:
20000708:	20001737          	lui	x14,0x20001
2000070c:	20001637          	lui	x12,0x20001
20000710:	ead74683          	lbu	x13,-339(x14) # 20000ead <rdix>
20000714:	eac64783          	lbu	x15,-340(x12) # 20000eac <wrix>
20000718:	0ff6f693          	andi	x13,x13,255
2000071c:	0ff7f793          	andi	x15,x15,255
20000720:	fef688e3          	beq	x13,x15,20000710 <_getch+0x8>
20000724:	ead74783          	lbu	x15,-339(x14)
20000728:	0ff7f693          	andi	x13,x15,255
2000072c:	00168793          	addi	x15,x13,1
20000730:	0ff7f793          	andi	x15,x15,255
20000734:	eaf706a3          	sb	x15,-339(x14)
20000738:	200017b7          	lui	x15,0x20001
2000073c:	d8878793          	addi	x15,x15,-632 # 20000d88 <udat>
20000740:	00d787b3          	add	x15,x15,x13
20000744:	ead74683          	lbu	x13,-339(x14)
20000748:	0007c503          	lbu	x10,0(x15)
2000074c:	01f6f693          	andi	x13,x13,31
20000750:	ead706a3          	sb	x13,-339(x14)
20000754:	00008067          	ret

20000758 <haschar>:
20000758:	200017b7          	lui	x15,0x20001
2000075c:	eac7c503          	lbu	x10,-340(x15) # 20000eac <wrix>
20000760:	200017b7          	lui	x15,0x20001
20000764:	ead7c783          	lbu	x15,-339(x15) # 20000ead <rdix>
20000768:	40f50533          	sub	x10,x10,x15
2000076c:	0ff57513          	andi	x10,x10,255
20000770:	00008067          	ret

20000774 <getMEPC>:
20000774:	34101573          	csrrw	x10,mepc,x0
20000778:	34151073          	csrw	mepc,x10
2000077c:	00008067          	ret

20000780 <irq0_handler>:
20000780:	fd810113          	addi	x2,x2,-40
20000784:	00b12823          	sw	x11,16(x2)
20000788:	00e12223          	sw	x14,4(x2)
2000078c:	00f12023          	sw	x15,0(x2)
20000790:	02112223          	sw	x1,36(x2)
20000794:	02512023          	sw	x5,32(x2)
20000798:	00612e23          	sw	x6,28(x2)
2000079c:	00712c23          	sw	x7,24(x2)
200007a0:	00a12a23          	sw	x10,20(x2)
200007a4:	00c12623          	sw	x12,12(x2)
200007a8:	00d12423          	sw	x13,8(x2)
200007ac:	fc9ff0ef          	jal	x1,20000774 <getMEPC>
200007b0:	ffc52703          	lw	x14,-4(x10)
200007b4:	07300793          	li	x15,115
200007b8:	ffc50593          	addi	x11,x10,-4
200007bc:	04f70463          	beq	x14,x15,20000804 <irq0_handler+0x84>
200007c0:	20001637          	lui	x12,0x20001
200007c4:	b8460613          	addi	x12,x12,-1148 # 20000b84 <main+0xf8>
200007c8:	20001537          	lui	x10,0x20001
200007cc:	b8c50513          	addi	x10,x10,-1140 # 20000b8c <main+0x100>
200007d0:	ec5ff0ef          	jal	x1,20000694 <_printf>
200007d4:	02412083          	lw	x1,36(x2)
200007d8:	02012283          	lw	x5,32(x2)
200007dc:	01c12303          	lw	x6,28(x2)
200007e0:	01812383          	lw	x7,24(x2)
200007e4:	01412503          	lw	x10,20(x2)
200007e8:	01012583          	lw	x11,16(x2)
200007ec:	00c12603          	lw	x12,12(x2)
200007f0:	00812683          	lw	x13,8(x2)
200007f4:	00412703          	lw	x14,4(x2)
200007f8:	00012783          	lw	x15,0(x2)
200007fc:	02810113          	addi	x2,x2,40
20000800:	30200073          	mret
20000804:	20001637          	lui	x12,0x20001
20000808:	b7c60613          	addi	x12,x12,-1156 # 20000b7c <main+0xf0>
2000080c:	fbdff06f          	j	200007c8 <irq0_handler+0x48>

20000810 <_memcpy>:
20000810:	02060263          	beqz	x12,20000834 <_memcpy+0x24>
20000814:	00000793          	li	x15,0
20000818:	00f58733          	add	x14,x11,x15
2000081c:	00074683          	lbu	x13,0(x14)
20000820:	00f50733          	add	x14,x10,x15
20000824:	00178793          	addi	x15,x15,1
20000828:	00d70023          	sb	x13,0(x14)
2000082c:	fef616e3          	bne	x12,x15,20000818 <_memcpy+0x8>
20000830:	00c50533          	add	x10,x10,x12
20000834:	00008067          	ret

20000838 <simputch>:
20000838:	ff010113          	addi	x2,x2,-16
2000083c:	00812423          	sw	x8,8(x2)
20000840:	00112623          	sw	x1,12(x2)
20000844:	00050413          	mv	x8,x10
20000848:	925ff0ef          	jal	x1,2000016c <_putch>
2000084c:	00c12083          	lw	x1,12(x2)
20000850:	00812023          	sw	x8,0(x2)
20000854:	00812403          	lw	x8,8(x2)
20000858:	01010113          	addi	x2,x2,16
2000085c:	00008067          	ret

20000860 <sieve>:
20000860:	e00007b7          	lui	x15,0xe0000
20000864:	0607a783          	lw	x15,96(x15) # e0000060 <_ebss+0xbffff1b0>
20000868:	fe410113          	addi	x2,x2,-28
2000086c:	00912823          	sw	x9,16(x2)
20000870:	200014b7          	lui	x9,0x20001
20000874:	fff00713          	li	x14,-1
20000878:	00112c23          	sw	x1,24(x2)
2000087c:	00812a23          	sw	x8,20(x2)
20000880:	00f12223          	sw	x15,4(x2)
20000884:	d8848793          	addi	x15,x9,-632 # 20000d88 <udat>
20000888:	02e78023          	sb	x14,32(x15)
2000088c:	d8848713          	addi	x14,x9,-632
20000890:	00100793          	li	x15,1
20000894:	00e12023          	sw	x14,0(x2)
20000898:	fff00693          	li	x13,-1
2000089c:	00012703          	lw	x14,0(x2)
200008a0:	00f70733          	add	x14,x14,x15
200008a4:	00178793          	addi	x15,x15,1
200008a8:	02d70023          	sb	x13,32(x14)
200008ac:	0ff7f793          	andi	x15,x15,255
200008b0:	fe0796e3          	bnez	x15,2000089c <sieve+0x3c>
200008b4:	00200493          	li	x9,2
200008b8:	00012783          	lw	x15,0(x2)
200008bc:	4034d713          	srai	x14,x9,0x3
200008c0:	0074f693          	andi	x13,x9,7
200008c4:	00e78733          	add	x14,x15,x14
200008c8:	02074703          	lbu	x14,32(x14)
200008cc:	40d75733          	sra	x14,x14,x13
200008d0:	00177713          	andi	x14,x14,1
200008d4:	04071663          	bnez	x14,20000920 <sieve+0xc0>
200008d8:	00148493          	addi	x9,x9,1
200008dc:	80048713          	addi	x14,x9,-2048
200008e0:	fc071ce3          	bnez	x14,200008b8 <sieve+0x58>
200008e4:	e00007b7          	lui	x15,0xe0000
200008e8:	0607a583          	lw	x11,96(x15) # e0000060 <_ebss+0xbffff1b0>
200008ec:	00412783          	lw	x15,4(x2)
200008f0:	01412403          	lw	x8,20(x2)
200008f4:	01812083          	lw	x1,24(x2)
200008f8:	40f587b3          	sub	x15,x11,x15
200008fc:	41f7d593          	srai	x11,x15,0x1f
20000900:	01012483          	lw	x9,16(x2)
20000904:	0035f593          	andi	x11,x11,3
20000908:	00f585b3          	add	x11,x11,x15
2000090c:	20001537          	lui	x10,0x20001
20000910:	4025d593          	srai	x11,x11,0x2
20000914:	ba050513          	addi	x10,x10,-1120 # 20000ba0 <main+0x114>
20000918:	01c10113          	addi	x2,x2,28
2000091c:	d79ff06f          	j	20000694 <_printf>
20000920:	00000693          	li	x13,0
20000924:	00048713          	mv	x14,x9
20000928:	00068413          	mv	x8,x13
2000092c:	200017b7          	lui	x15,0x20001
20000930:	00168693          	addi	x13,x13,1
20000934:	0ff6f693          	andi	x13,x13,255
20000938:	ea878793          	addi	x15,x15,-344 # 20000ea8 <buf>
2000093c:	00a00593          	li	x11,10
20000940:	00070513          	mv	x10,x14
20000944:	00d12623          	sw	x13,12(x2)
20000948:	00f40433          	add	x8,x8,x15
2000094c:	00e12423          	sw	x14,8(x2)
20000950:	10c000ef          	jal	x1,20000a5c <__modsi3>
20000954:	00812703          	lw	x14,8(x2)
20000958:	03050513          	addi	x10,x10,48
2000095c:	00a40023          	sb	x10,0(x8)
20000960:	00a00593          	li	x11,10
20000964:	00070513          	mv	x10,x14
20000968:	070000ef          	jal	x1,200009d8 <__divsi3>
2000096c:	00c12683          	lw	x13,12(x2)
20000970:	00050713          	mv	x14,x10
20000974:	fa051ae3          	bnez	x10,20000928 <sieve+0xc8>
20000978:	00044503          	lbu	x10,0(x8)
2000097c:	ebdff0ef          	jal	x1,20000838 <simputch>
20000980:	200017b7          	lui	x15,0x20001
20000984:	00040713          	mv	x14,x8
20000988:	ea878793          	addi	x15,x15,-344 # 20000ea8 <buf>
2000098c:	fff40413          	addi	x8,x8,-1
20000990:	fee794e3          	bne	x15,x14,20000978 <sieve+0x118>
20000994:	02000513          	li	x10,32
20000998:	ea1ff0ef          	jal	x1,20000838 <simputch>
2000099c:	00149693          	slli	x13,x9,0x1
200009a0:	7ff00593          	li	x11,2047
200009a4:	00100513          	li	x10,1
200009a8:	f2d5c8e3          	blt	x11,x13,200008d8 <sieve+0x78>
200009ac:	00012783          	lw	x15,0(x2)
200009b0:	4036d613          	srai	x12,x13,0x3
200009b4:	0076f713          	andi	x14,x13,7
200009b8:	00c78633          	add	x12,x15,x12
200009bc:	02064303          	lbu	x6,32(x12)
200009c0:	00e51733          	sll	x14,x10,x14
200009c4:	fff74713          	not	x14,x14
200009c8:	00677733          	and	x14,x14,x6
200009cc:	02e60023          	sb	x14,32(x12)
200009d0:	009686b3          	add	x13,x13,x9
200009d4:	fd5ff06f          	j	200009a8 <sieve+0x148>

200009d8 <__divsi3>:
200009d8:	06054063          	bltz	x10,20000a38 <__umodsi3+0x10>
200009dc:	0605c663          	bltz	x11,20000a48 <__umodsi3+0x20>

200009e0 <__udivsi3>:
200009e0:	00058613          	mv	x12,x11
200009e4:	00050593          	mv	x11,x10
200009e8:	fff00513          	li	x10,-1
200009ec:	02060c63          	beqz	x12,20000a24 <__udivsi3+0x44>
200009f0:	00100693          	li	x13,1
200009f4:	00b67a63          	bgeu	x12,x11,20000a08 <__udivsi3+0x28>
200009f8:	00c05863          	blez	x12,20000a08 <__udivsi3+0x28>
200009fc:	00161613          	slli	x12,x12,0x1
20000a00:	00169693          	slli	x13,x13,0x1
20000a04:	feb66ae3          	bltu	x12,x11,200009f8 <__udivsi3+0x18>
20000a08:	00000513          	li	x10,0
20000a0c:	00c5e663          	bltu	x11,x12,20000a18 <__udivsi3+0x38>
20000a10:	40c585b3          	sub	x11,x11,x12
20000a14:	00d56533          	or	x10,x10,x13
20000a18:	0016d693          	srli	x13,x13,0x1
20000a1c:	00165613          	srli	x12,x12,0x1
20000a20:	fe0696e3          	bnez	x13,20000a0c <__udivsi3+0x2c>
20000a24:	00008067          	ret

20000a28 <__umodsi3>:
20000a28:	00008293          	mv	x5,x1
20000a2c:	fb5ff0ef          	jal	x1,200009e0 <__udivsi3>
20000a30:	00058513          	mv	x10,x11
20000a34:	00028067          	jr	x5
20000a38:	40a00533          	neg	x10,x10
20000a3c:	0005d863          	bgez	x11,20000a4c <__umodsi3+0x24>
20000a40:	40b005b3          	neg	x11,x11
20000a44:	f9dff06f          	j	200009e0 <__udivsi3>
20000a48:	40b005b3          	neg	x11,x11
20000a4c:	00008293          	mv	x5,x1
20000a50:	f91ff0ef          	jal	x1,200009e0 <__udivsi3>
20000a54:	40a00533          	neg	x10,x10
20000a58:	00028067          	jr	x5

20000a5c <__modsi3>:
20000a5c:	00008293          	mv	x5,x1
20000a60:	0005ca63          	bltz	x11,20000a74 <__modsi3+0x18>
20000a64:	00054c63          	bltz	x10,20000a7c <__modsi3+0x20>
20000a68:	f79ff0ef          	jal	x1,200009e0 <__udivsi3>
20000a6c:	00058513          	mv	x10,x11
20000a70:	00028067          	jr	x5
20000a74:	40b005b3          	neg	x11,x11
20000a78:	fe0558e3          	bgez	x10,20000a68 <__modsi3+0xc>
20000a7c:	40a00533          	neg	x10,x10
20000a80:	f61ff0ef          	jal	x1,200009e0 <__udivsi3>
20000a84:	40b00533          	neg	x10,x11
20000a88:	00028067          	jr	x5

20000a8c <main>:
20000a8c:	ff410113          	addi	x2,x2,-12
20000a90:	20000737          	lui	x14,0x20000
20000a94:	00112423          	sw	x1,8(x2)
20000a98:	00812223          	sw	x8,4(x2)
20000a9c:	00912023          	sw	x9,0(x2)
20000aa0:	e00007b7          	lui	x15,0xe0000
20000aa4:	0c070713          	addi	x14,x14,192 # 200000c0 <irq2_handler>
20000aa8:	0ee7ac23          	sw	x14,248(x15) # e00000f8 <_ebss+0xbffff248>
20000aac:	20000737          	lui	x14,0x20000
20000ab0:	03870713          	addi	x14,x14,56 # 20000038 <irq3_handler>
20000ab4:	0ee7ae23          	sw	x14,252(x15)
20000ab8:	00000073          	ecall
20000abc:	00100073          	ebreak
20000ac0:	0e07a703          	lw	x14,224(x15)
20000ac4:	200014b7          	lui	x9,0x20001
20000ac8:	00576713          	ori	x14,x14,5
20000acc:	0ee7a023          	sw	x14,224(x15)
20000ad0:	ba848513          	addi	x10,x9,-1112 # 20000ba8 <main+0x11c>
20000ad4:	b8dff0ef          	jal	x1,20000660 <_puts>
20000ad8:	c31ff0ef          	jal	x1,20000708 <_getch>
20000adc:	fdf50793          	addi	x15,x10,-33
20000ae0:	0ff7f793          	andi	x15,x15,255
20000ae4:	05d00713          	li	x14,93
20000ae8:	00050413          	mv	x8,x10
20000aec:	00f76463          	bltu	x14,x15,20000af4 <main+0x68>
20000af0:	e7cff0ef          	jal	x1,2000016c <_putch>
20000af4:	20001537          	lui	x10,0x20001
20000af8:	bbc50513          	addi	x10,x10,-1092 # 20000bbc <main+0x130>
20000afc:	b65ff0ef          	jal	x1,20000660 <_puts>
20000b00:	07400793          	li	x15,116
20000b04:	04f40c63          	beq	x8,x15,20000b5c <main+0xd0>
20000b08:	0287ea63          	bltu	x15,x8,20000b3c <main+0xb0>
20000b0c:	03100793          	li	x15,49
20000b10:	04f40a63          	beq	x8,x15,20000b64 <main+0xd8>
20000b14:	03200793          	li	x15,50
20000b18:	faf41ce3          	bne	x8,x15,20000ad0 <main+0x44>
20000b1c:	e0000737          	lui	x14,0xe0000
20000b20:	0e072783          	lw	x15,224(x14) # e00000e0 <_ebss+0xbffff230>
20000b24:	00021537          	lui	x10,0x21
20000b28:	8cb50513          	addi	x10,x10,-1845 # 208cb <start-0x1ffdf735>
20000b2c:	0027c793          	xori	x15,x15,2
20000b30:	0ef72023          	sw	x15,224(x14)
20000b34:	cf8ff0ef          	jal	x1,2000002c <delay_loop>
20000b38:	f99ff06f          	j	20000ad0 <main+0x44>
20000b3c:	07800793          	li	x15,120
20000b40:	f8f418e3          	bne	x8,x15,20000ad0 <main+0x44>
20000b44:	20001537          	lui	x10,0x20001
20000b48:	d4c50513          	addi	x10,x10,-692 # 20000d4c <main+0x2c0>
20000b4c:	b15ff0ef          	jal	x1,20000660 <_puts>
20000b50:	e00007b7          	lui	x15,0xe0000
20000b54:	0e07a023          	sw	x0,224(x15) # e00000e0 <_ebss+0xbffff230>
20000b58:	00000067          	jr	x0 # 0 <start-0x20000000>
20000b5c:	d05ff0ef          	jal	x1,20000860 <sieve>
20000b60:	f71ff06f          	j	20000ad0 <main+0x44>
20000b64:	20001537          	lui	x10,0x20001
20000b68:	bc050513          	addi	x10,x10,-1088 # 20000bc0 <main+0x134>
20000b6c:	af5ff0ef          	jal	x1,20000660 <_puts>
20000b70:	f61ff06f          	j	20000ad0 <main+0x44>
20000b74:	6e28                	flw	f10,88(x12)
20000b76:	6c75                	lui	x24,0x1d
20000b78:	296c                	fld	f11,208(x10)
20000b7a:	0000                	unimp
20000b7c:	4345                	li	x6,17
20000b7e:	4c41                	li	x24,16
20000b80:	004c                	addi	x11,x2,4
20000b82:	0000                	unimp
20000b84:	4245                	li	x4,17
20000b86:	4552                	lw	x10,20(x2)
20000b88:	4b41                	li	x22,16
20000b8a:	0000                	unimp
20000b8c:	540a                	lw	x8,160(x2)
20000b8e:	4152                	lw	x2,20(x2)
20000b90:	2050                	fld	f12,128(x8)
20000b92:	7461                	lui	x8,0xffff8
20000b94:	3020                	fld	f8,96(x8)
20000b96:	2578                	fld	f14,200(x10)
20000b98:	2078                	fld	f14,192(x8)
20000b9a:	252d                	jal	200011c4 <_ebss+0x314>
20000b9c:	000a2d73          	csrrs	x26,ustatus,x20
20000ba0:	250a                	fld	f10,128(x2)
20000ba2:	2064                	fld	f9,192(x8)
20000ba4:	7375                	lui	x6,0xffffd
20000ba6:	000a                	c.slli	x0,0x2
20000ba8:	6d6d6f43          	0x6d6d6f43
20000bac:	6e61                	lui	x28,0x18
20000bae:	2064                	fld	f9,192(x8)
20000bb0:	7832315b          	0x7832315b
20000bb4:	5d74                	lw	x13,124(x10)
20000bb6:	203e                	fld	f0,456(x2)
20000bb8:	0000                	unimp
20000bba:	0000                	unimp
20000bbc:	000a                	c.slli	x0,0x2
20000bbe:	0000                	unimp
20000bc0:	0a0a                	slli	x20,x20,0x2
20000bc2:	380a                	fld	f16,160(x2)
20000bc4:	3838                	fld	f14,112(x8)
20000bc6:	2020                	fld	f8,64(x8)
20000bc8:	2020                	fld	f8,64(x8)
20000bca:	2020                	fld	f8,64(x8)
20000bcc:	2020                	fld	f8,64(x8)
20000bce:	2020                	fld	f8,64(x8)
20000bd0:	2020                	fld	f8,64(x8)
20000bd2:	2020                	fld	f8,64(x8)
20000bd4:	2020                	fld	f8,64(x8)
20000bd6:	3838                	fld	f14,112(x8)
20000bd8:	3838                	fld	f14,112(x8)
20000bda:	3838                	fld	f14,112(x8)
20000bdc:	6238                	flw	f14,64(x12)
20000bde:	202e                	fld	f0,200(x2)
20000be0:	3820                	fld	f8,112(x8)
20000be2:	3838                	fld	f14,112(x8)
20000be4:	2020                	fld	f8,64(x8)
20000be6:	2020                	fld	f8,64(x8)
20000be8:	3820                	fld	f8,112(x8)
20000bea:	3838                	fld	f14,112(x8)
20000bec:	380a                	fld	f16,160(x2)
20000bee:	3838                	fld	f14,112(x8)
20000bf0:	2020                	fld	f8,64(x8)
20000bf2:	2020                	fld	f8,64(x8)
20000bf4:	2020                	fld	f8,64(x8)
20000bf6:	2020                	fld	f8,64(x8)
20000bf8:	2020                	fld	f8,64(x8)
20000bfa:	2020                	fld	f8,64(x8)
20000bfc:	2020                	fld	f8,64(x8)
20000bfe:	2020                	fld	f8,64(x8)
20000c00:	3838                	fld	f14,112(x8)
20000c02:	2038                	fld	f14,64(x8)
20000c04:	2020                	fld	f8,64(x8)
20000c06:	3859                	jal	2000049c <print+0x54>
20000c08:	6238                	flw	f14,64(x12)
20000c0a:	3820                	fld	f8,112(x8)
20000c0c:	3838                	fld	f14,112(x8)
20000c0e:	2020                	fld	f8,64(x8)
20000c10:	2020                	fld	f8,64(x8)
20000c12:	3820                	fld	f8,112(x8)
20000c14:	3838                	fld	f14,112(x8)
20000c16:	380a                	fld	f16,160(x2)
20000c18:	3838                	fld	f14,112(x8)
20000c1a:	2020                	fld	f8,64(x8)
20000c1c:	2020                	fld	f8,64(x8)
20000c1e:	2020                	fld	f8,64(x8)
20000c20:	2020                	fld	f8,64(x8)
20000c22:	2020                	fld	f8,64(x8)
20000c24:	2020                	fld	f8,64(x8)
20000c26:	2020                	fld	f8,64(x8)
20000c28:	2020                	fld	f8,64(x8)
20000c2a:	3838                	fld	f14,112(x8)
20000c2c:	2038                	fld	f14,64(x8)
20000c2e:	2020                	fld	f8,64(x8)
20000c30:	3820                	fld	f8,112(x8)
20000c32:	3838                	fld	f14,112(x8)
20000c34:	3820                	fld	f8,112(x8)
20000c36:	3838                	fld	f14,112(x8)
20000c38:	2020                	fld	f8,64(x8)
20000c3a:	2020                	fld	f8,64(x8)
20000c3c:	3820                	fld	f8,112(x8)
20000c3e:	3838                	fld	f14,112(x8)
20000c40:	380a                	fld	f16,160(x2)
20000c42:	3838                	fld	f14,112(x8)
20000c44:	2020                	fld	f8,64(x8)
20000c46:	2020                	fld	f8,64(x8)
20000c48:	2020                	fld	f8,64(x8)
20000c4a:	2020                	fld	f8,64(x8)
20000c4c:	3838                	fld	f14,112(x8)
20000c4e:	3838                	fld	f14,112(x8)
20000c50:	2e62                	fld	f28,24(x2)
20000c52:	2020                	fld	f8,64(x8)
20000c54:	3838                	fld	f14,112(x8)
20000c56:	2038                	fld	f14,64(x8)
20000c58:	2020                	fld	f8,64(x8)
20000c5a:	3864                	fld	f9,240(x8)
20000c5c:	5038                	lw	x14,96(x8)
20000c5e:	5920                	lw	x8,112(x10)
20000c60:	3838                	fld	f14,112(x8)
20000c62:	2062                	fld	f0,24(x2)
20000c64:	2020                	fld	f8,64(x8)
20000c66:	3864                	fld	f9,240(x8)
20000c68:	5038                	lw	x14,96(x8)
20000c6a:	3820                	fld	f8,112(x8)
20000c6c:	3838                	fld	f14,112(x8)
20000c6e:	6238                	flw	f14,64(x12)
20000c70:	0a2e                	slli	x20,x20,0xb
20000c72:	3838                	fld	f14,112(x8)
20000c74:	2038                	fld	f14,64(x8)
20000c76:	2020                	fld	f8,64(x8)
20000c78:	2020                	fld	f8,64(x8)
20000c7a:	2020                	fld	f8,64(x8)
20000c7c:	2020                	fld	f8,64(x8)
20000c7e:	2020                	fld	f8,64(x8)
20000c80:	62383827          	fsd	f3,1584(x16)
20000c84:	3820                	fld	f8,112(x8)
20000c86:	3838                	fld	f14,112(x8)
20000c88:	3838                	fld	f14,112(x8)
20000c8a:	3838                	fld	f14,112(x8)
20000c8c:	2750                	fld	f12,136(x14)
20000c8e:	2020                	fld	f8,64(x8)
20000c90:	5920                	lw	x8,112(x10)
20000c92:	3838                	fld	f14,112(x8)
20000c94:	2062                	fld	f0,24(x2)
20000c96:	3864                	fld	f9,240(x8)
20000c98:	5038                	lw	x14,96(x8)
20000c9a:	2020                	fld	f8,64(x8)
20000c9c:	2020                	fld	f8,64(x8)
20000c9e:	2720                	fld	f8,72(x14)
20000ca0:	3838                	fld	f14,112(x8)
20000ca2:	0a62                	slli	x20,x20,0x18
20000ca4:	3838                	fld	f14,112(x8)
20000ca6:	2038                	fld	f14,64(x8)
20000ca8:	2020                	fld	f8,64(x8)
20000caa:	2020                	fld	f8,64(x8)
20000cac:	2020                	fld	f8,64(x8)
20000cae:	642e                	flw	f8,200(x2)
20000cb0:	3838                	fld	f14,112(x8)
20000cb2:	3838                	fld	f14,112(x8)
20000cb4:	3838                	fld	f14,112(x8)
20000cb6:	3820                	fld	f8,112(x8)
20000cb8:	3838                	fld	f14,112(x8)
20000cba:	5420                	lw	x8,104(x8)
20000cbc:	3838                	fld	f14,112(x8)
20000cbe:	2062                	fld	f0,24(x2)
20000cc0:	2020                	fld	f8,64(x8)
20000cc2:	2020                	fld	f8,64(x8)
20000cc4:	3859                	jal	2000055a <print+0x112>
20000cc6:	6f38                	flw	f14,88(x14)
20000cc8:	3838                	fld	f14,112(x8)
20000cca:	2050                	fld	f12,128(x8)
20000ccc:	2e20                	fld	f8,88(x12)
20000cce:	3864                	fld	f9,240(x8)
20000cd0:	3838                	fld	f14,112(x8)
20000cd2:	3838                	fld	f14,112(x8)
20000cd4:	0a38                	addi	x14,x2,280
20000cd6:	3838                	fld	f14,112(x8)
20000cd8:	3838                	fld	f14,112(x8)
20000cda:	3838                	fld	f14,112(x8)
20000cdc:	3838                	fld	f14,112(x8)
20000cde:	2038                	fld	f14,64(x8)
20000ce0:	3838                	fld	f14,112(x8)
20000ce2:	2038                	fld	f14,64(x8)
20000ce4:	3820                	fld	f8,112(x8)
20000ce6:	3838                	fld	f14,112(x8)
20000ce8:	3820                	fld	f8,112(x8)
20000cea:	3838                	fld	f14,112(x8)
20000cec:	2020                	fld	f8,64(x8)
20000cee:	3854                	fld	f13,176(x8)
20000cf0:	6238                	flw	f14,64(x12)
20000cf2:	2020                	fld	f8,64(x8)
20000cf4:	2020                	fld	f8,64(x8)
20000cf6:	5920                	lw	x8,112(x10)
20000cf8:	3838                	fld	f14,112(x8)
20000cfa:	5038                	lw	x14,96(x8)
20000cfc:	2020                	fld	f8,64(x8)
20000cfe:	3820                	fld	f8,112(x8)
20000d00:	3838                	fld	f14,112(x8)
20000d02:	2020                	fld	f8,64(x8)
20000d04:	3838                	fld	f14,112(x8)
20000d06:	0a38                	addi	x14,x2,280
20000d08:	3838                	fld	f14,112(x8)
20000d0a:	3838                	fld	f14,112(x8)
20000d0c:	3838                	fld	f14,112(x8)
20000d0e:	3838                	fld	f14,112(x8)
20000d10:	2038                	fld	f14,64(x8)
20000d12:	38385927          	0x38385927
20000d16:	3838                	fld	f14,112(x8)
20000d18:	3838                	fld	f14,112(x8)
20000d1a:	3820                	fld	f8,112(x8)
20000d1c:	3838                	fld	f14,112(x8)
20000d1e:	2020                	fld	f8,64(x8)
20000d20:	5420                	lw	x8,104(x8)
20000d22:	3838                	fld	f14,112(x8)
20000d24:	2062                	fld	f0,24(x2)
20000d26:	2020                	fld	f8,64(x8)
20000d28:	2020                	fld	f8,64(x8)
20000d2a:	3859                	jal	200005c0 <print+0x178>
20000d2c:	2050                	fld	f12,128(x8)
20000d2e:	2020                	fld	f8,64(x8)
20000d30:	2720                	fld	f8,72(x14)
20000d32:	3859                	jal	200005c8 <print+0x180>
20000d34:	3838                	fld	f14,112(x8)
20000d36:	3838                	fld	f14,112(x8)
20000d38:	0a38                	addi	x14,x2,280
20000d3a:	490a                	lw	x18,128(x2)
20000d3c:	7374                	flw	f13,100(x14)
20000d3e:	4120                	lw	x8,64(x10)
20000d40:	696c                	flw	f11,84(x10)
20000d42:	6576                	flw	f10,92(x2)
20000d44:	3a20                	fld	f8,112(x12)
20000d46:	292d                	jal	20001180 <_ebss+0x2d0>
20000d48:	0a0a                	slli	x20,x20,0x2
20000d4a:	0000                	unimp
20000d4c:	7055                	c.lui	x0,0xffff5
20000d4e:	6f6c                	flw	f11,92(x14)
20000d50:	6461                	lui	x8,0x18
20000d52:	4120                	lw	x8,64(x10)
20000d54:	5050                	lw	x12,36(x8)
20000d56:	6620                	flw	f8,72(x12)
20000d58:	6f72                	flw	f30,28(x2)
20000d5a:	206d                	jal	20000e04 <array+0x5c>
20000d5c:	69726573          	csrrsi	x10,0x697,4
20000d60:	6c61                	lui	x24,0x18
20000d62:	7020                	flw	f8,96(x8)
20000d64:	2074726f          	jal	x4,2004876a <_ebss+0x478ba>
20000d68:	3c28                	fld	f10,120(x8)
20000d6a:	6c747263          	bgeu	x8,x7,2000142e <_ebss+0x57e>
20000d6e:	2d3e                	fld	f26,456(x2)
20000d70:	2946                	fld	f18,80(x2)
20000d72:	6120                	flw	f8,64(x10)
20000d74:	646e                	flw	f8,216(x2)
20000d76:	6520                	flw	f8,72(x10)
20000d78:	6578                	flw	f14,76(x10)
20000d7a:	65747563          	bgeu	x8,x23,200013c4 <_ebss+0x514>
20000d7e:	000a                	c.slli	x0,0x2
