
debug.elf:     file format elf32-littleriscv


Disassembly of section .text:

2001dff0 <start-0x10>:
2001dff0:	ffff                	0xffff
2001dff2:	4cff                	0x4cff
2001dff4:	e000                	fsw	f8,0(x8)
2001dff6:	2001                	jal	2001dff6 <start-0xa>
2001dff8:	18a8                	addi	x10,x2,120
2001dffa:	0000                	unimp
2001dffc:	e000                	fsw	f8,0(x8)
2001dffe:	2001                	jal	2001dffe <start-0x2>

2001e000 <start>:
2001e000:	20020137          	lui	x2,0x20020
2001e004:	00002517          	auipc	x10,0x2
2001e008:	8a450513          	addi	x10,x10,-1884 # 2001f8a8 <wadd.0>
2001e00c:	00002597          	auipc	x11,0x2
2001e010:	8bc58593          	addi	x11,x11,-1860 # 2001f8c8 <_ebss>
2001e014:	00b55863          	bge	x10,x11,2001e024 <end_init_bss>

2001e018 <loop_init_bss>:
2001e018:	00052023          	sw	x0,0(x10)
2001e01c:	00450513          	addi	x10,x10,4
2001e020:	feb54ce3          	blt	x10,x11,2001e018 <loop_init_bss>

2001e024 <end_init_bss>:
2001e024:	268010ef          	jal	x1,2001f28c <main>

2001e028 <loop>:
2001e028:	0000006f          	j	2001e028 <loop>

2001e02c <delay_loop>:
2001e02c:	fff50513          	addi	x10,x10,-1
2001e030:	fe051ee3          	bnez	x10,2001e02c <delay_loop>
2001e034:	00008067          	ret

2001e038 <debug_handler>:
2001e038:	fc010113          	addi	x2,x2,-64 # 2001ffc0 <_ebss+0x6f8>
2001e03c:	00112023          	sw	x1,0(x2)
2001e040:	04010093          	addi	x1,x2,64
2001e044:	00112223          	sw	x1,4(x2)
2001e048:	00312423          	sw	x3,8(x2)
2001e04c:	00412623          	sw	x4,12(x2)
2001e050:	00512823          	sw	x5,16(x2)
2001e054:	00612a23          	sw	x6,20(x2)
2001e058:	00712c23          	sw	x7,24(x2)
2001e05c:	00812e23          	sw	x8,28(x2)
2001e060:	02912023          	sw	x9,32(x2)
2001e064:	02a12223          	sw	x10,36(x2)
2001e068:	02b12423          	sw	x11,40(x2)
2001e06c:	02c12623          	sw	x12,44(x2)
2001e070:	02d12823          	sw	x13,48(x2)
2001e074:	02e12a23          	sw	x14,52(x2)
2001e078:	02f12c23          	sw	x15,56(x2)
2001e07c:	341010f3          	csrrw	x1,mepc,x0
2001e080:	02112e23          	sw	x1,60(x2)
2001e084:	00010513          	mv	x10,x2
2001e088:	34d000ef          	jal	x1,2001ebd4 <singlestep>
2001e08c:	03c12083          	lw	x1,60(x2)
2001e090:	34109073          	csrw	mepc,x1
2001e094:	00012083          	lw	x1,0(x2)
2001e098:	00812183          	lw	x3,8(x2)
2001e09c:	00c12203          	lw	x4,12(x2)
2001e0a0:	01012283          	lw	x5,16(x2)
2001e0a4:	01412303          	lw	x6,20(x2)
2001e0a8:	01812383          	lw	x7,24(x2)
2001e0ac:	01c12403          	lw	x8,28(x2)
2001e0b0:	02012483          	lw	x9,32(x2)
2001e0b4:	02412503          	lw	x10,36(x2)
2001e0b8:	02812583          	lw	x11,40(x2)
2001e0bc:	02c12603          	lw	x12,44(x2)
2001e0c0:	03012683          	lw	x13,48(x2)
2001e0c4:	03412703          	lw	x14,52(x2)
2001e0c8:	03812783          	lw	x15,56(x2)
2001e0cc:	00412103          	lw	x2,4(x2)
2001e0d0:	30200073          	mret

2001e0d4 <_putch>:
2001e0d4:	e0000737          	lui	x14,0xe0000
2001e0d8:	00472783          	lw	x15,4(x14) # e0000004 <_ebss+0xbffe073c>
2001e0dc:	0027f793          	andi	x15,x15,2
2001e0e0:	fe078ce3          	beqz	x15,2001e0d8 <_putch+0x4>
2001e0e4:	00a72023          	sw	x10,0(x14)
2001e0e8:	00008067          	ret

2001e0ec <printchar>:
2001e0ec:	00050793          	mv	x15,x10
2001e0f0:	00058513          	mv	x10,x11
2001e0f4:	00078e63          	beqz	x15,2001e110 <printchar+0x24>
2001e0f8:	0007a703          	lw	x14,0(x15)
2001e0fc:	00b70023          	sb	x11,0(x14)
2001e100:	0007a703          	lw	x14,0(x15)
2001e104:	00170713          	addi	x14,x14,1
2001e108:	00e7a023          	sw	x14,0(x15)
2001e10c:	00008067          	ret
2001e110:	fc5ff06f          	j	2001e0d4 <_putch>

2001e114 <prints>:
2001e114:	fe410113          	addi	x2,x2,-28
2001e118:	00812a23          	sw	x8,20(x2)
2001e11c:	00912823          	sw	x9,16(x2)
2001e120:	00112c23          	sw	x1,24(x2)
2001e124:	00058493          	mv	x9,x11
2001e128:	02000413          	li	x8,32
2001e12c:	02c05a63          	blez	x12,2001e160 <prints+0x4c>
2001e130:	00000793          	li	x15,0
2001e134:	0080006f          	j	2001e13c <prints+0x28>
2001e138:	00178793          	addi	x15,x15,1
2001e13c:	00f48733          	add	x14,x9,x15
2001e140:	00074703          	lbu	x14,0(x14)
2001e144:	fe071ae3          	bnez	x14,2001e138 <prints+0x24>
2001e148:	02c7d663          	bge	x15,x12,2001e174 <prints+0x60>
2001e14c:	40f60633          	sub	x12,x12,x15
2001e150:	0026f793          	andi	x15,x13,2
2001e154:	02000413          	li	x8,32
2001e158:	00078463          	beqz	x15,2001e160 <prints+0x4c>
2001e15c:	03000413          	li	x8,48
2001e160:	0016f693          	andi	x13,x13,1
2001e164:	00000793          	li	x15,0
2001e168:	04069663          	bnez	x13,2001e1b4 <prints+0xa0>
2001e16c:	00060793          	mv	x15,x12
2001e170:	0300006f          	j	2001e1a0 <prints+0x8c>
2001e174:	00000613          	li	x12,0
2001e178:	fd9ff06f          	j	2001e150 <prints+0x3c>
2001e17c:	00040593          	mv	x11,x8
2001e180:	00c12423          	sw	x12,8(x2)
2001e184:	00f12223          	sw	x15,4(x2)
2001e188:	00a12023          	sw	x10,0(x2)
2001e18c:	f61ff0ef          	jal	x1,2001e0ec <printchar>
2001e190:	00412783          	lw	x15,4(x2)
2001e194:	00012503          	lw	x10,0(x2)
2001e198:	00812603          	lw	x12,8(x2)
2001e19c:	fff78793          	addi	x15,x15,-1
2001e1a0:	fcf04ee3          	bgtz	x15,2001e17c <prints+0x68>
2001e1a4:	00060793          	mv	x15,x12
2001e1a8:	00065463          	bgez	x12,2001e1b0 <prints+0x9c>
2001e1ac:	00000793          	li	x15,0
2001e1b0:	40f60633          	sub	x12,x12,x15
2001e1b4:	00078713          	mv	x14,x15
2001e1b8:	02c0006f          	j	2001e1e4 <prints+0xd0>
2001e1bc:	00c12623          	sw	x12,12(x2)
2001e1c0:	00f12423          	sw	x15,8(x2)
2001e1c4:	00e12223          	sw	x14,4(x2)
2001e1c8:	00a12023          	sw	x10,0(x2)
2001e1cc:	f21ff0ef          	jal	x1,2001e0ec <printchar>
2001e1d0:	00412703          	lw	x14,4(x2)
2001e1d4:	00012503          	lw	x10,0(x2)
2001e1d8:	00812783          	lw	x15,8(x2)
2001e1dc:	00c12603          	lw	x12,12(x2)
2001e1e0:	00170713          	addi	x14,x14,1
2001e1e4:	40f706b3          	sub	x13,x14,x15
2001e1e8:	00d486b3          	add	x13,x9,x13
2001e1ec:	0006c583          	lbu	x11,0(x13)
2001e1f0:	fc0596e3          	bnez	x11,2001e1bc <prints+0xa8>
2001e1f4:	00060493          	mv	x9,x12
2001e1f8:	02904263          	bgtz	x9,2001e21c <prints+0x108>
2001e1fc:	00065463          	bgez	x12,2001e204 <prints+0xf0>
2001e200:	00000613          	li	x12,0
2001e204:	01812083          	lw	x1,24(x2)
2001e208:	01412403          	lw	x8,20(x2)
2001e20c:	01012483          	lw	x9,16(x2)
2001e210:	00e60533          	add	x10,x12,x14
2001e214:	01c10113          	addi	x2,x2,28
2001e218:	00008067          	ret
2001e21c:	00040593          	mv	x11,x8
2001e220:	00c12423          	sw	x12,8(x2)
2001e224:	00e12223          	sw	x14,4(x2)
2001e228:	00a12023          	sw	x10,0(x2)
2001e22c:	ec1ff0ef          	jal	x1,2001e0ec <printchar>
2001e230:	00812603          	lw	x12,8(x2)
2001e234:	00412703          	lw	x14,4(x2)
2001e238:	00012503          	lw	x10,0(x2)
2001e23c:	fff48493          	addi	x9,x9,-1
2001e240:	fb9ff06f          	j	2001e1f8 <prints+0xe4>

2001e244 <printi>:
2001e244:	fcc10113          	addi	x2,x2,-52
2001e248:	02812623          	sw	x8,44(x2)
2001e24c:	00058313          	mv	x6,x11
2001e250:	02112823          	sw	x1,48(x2)
2001e254:	02912423          	sw	x9,40(x2)
2001e258:	00a12023          	sw	x10,0(x2)
2001e25c:	00060593          	mv	x11,x12
2001e260:	00068413          	mv	x8,x13
2001e264:	00070613          	mv	x12,x14
2001e268:	00078693          	mv	x13,x15
2001e26c:	02031663          	bnez	x6,2001e298 <printi+0x54>
2001e270:	03000793          	li	x15,48
2001e274:	01c10593          	addi	x11,x2,28
2001e278:	00f10e23          	sb	x15,28(x2)
2001e27c:	00010ea3          	sb	x0,29(x2)
2001e280:	e95ff0ef          	jal	x1,2001e114 <prints>
2001e284:	03012083          	lw	x1,48(x2)
2001e288:	02c12403          	lw	x8,44(x2)
2001e28c:	02812483          	lw	x9,40(x2)
2001e290:	03410113          	addi	x2,x2,52
2001e294:	00008067          	ret
2001e298:	00030793          	mv	x15,x6
2001e29c:	00040a63          	beqz	x8,2001e2b0 <printi+0x6c>
2001e2a0:	00a00713          	li	x14,10
2001e2a4:	0ee59263          	bne	x11,x14,2001e388 <printi+0x144>
2001e2a8:	0e035063          	bgez	x6,2001e388 <printi+0x144>
2001e2ac:	406007b3          	neg	x15,x6
2001e2b0:	03412703          	lw	x14,52(x2)
2001e2b4:	020103a3          	sb	x0,39(x2)
2001e2b8:	02710313          	addi	x6,x2,39
2001e2bc:	fc670713          	addi	x14,x14,-58
2001e2c0:	00e12223          	sw	x14,4(x2)
2001e2c4:	00078513          	mv	x10,x15
2001e2c8:	00d12c23          	sw	x13,24(x2)
2001e2cc:	00c12a23          	sw	x12,20(x2)
2001e2d0:	00612823          	sw	x6,16(x2)
2001e2d4:	00b12623          	sw	x11,12(x2)
2001e2d8:	00f12423          	sw	x15,8(x2)
2001e2dc:	74d000ef          	jal	x1,2001f228 <__umodsi3>
2001e2e0:	00900713          	li	x14,9
2001e2e4:	00812783          	lw	x15,8(x2)
2001e2e8:	00c12583          	lw	x11,12(x2)
2001e2ec:	01012303          	lw	x6,16(x2)
2001e2f0:	01412603          	lw	x12,20(x2)
2001e2f4:	01812683          	lw	x13,24(x2)
2001e2f8:	00a77663          	bgeu	x14,x10,2001e304 <printi+0xc0>
2001e2fc:	00412703          	lw	x14,4(x2)
2001e300:	00e50533          	add	x10,x10,x14
2001e304:	03050513          	addi	x10,x10,48
2001e308:	fea30fa3          	sb	x10,-1(x6)
2001e30c:	00078513          	mv	x10,x15
2001e310:	00d12c23          	sw	x13,24(x2)
2001e314:	00c12a23          	sw	x12,20(x2)
2001e318:	fff30493          	addi	x9,x6,-1
2001e31c:	00612823          	sw	x6,16(x2)
2001e320:	00b12623          	sw	x11,12(x2)
2001e324:	00f12423          	sw	x15,8(x2)
2001e328:	6b9000ef          	jal	x1,2001f1e0 <__udivsi3>
2001e32c:	00812783          	lw	x15,8(x2)
2001e330:	00c12583          	lw	x11,12(x2)
2001e334:	01012303          	lw	x6,16(x2)
2001e338:	01412603          	lw	x12,20(x2)
2001e33c:	01812683          	lw	x13,24(x2)
2001e340:	04b7f863          	bgeu	x15,x11,2001e390 <printi+0x14c>
2001e344:	02040863          	beqz	x8,2001e374 <printi+0x130>
2001e348:	04060a63          	beqz	x12,2001e39c <printi+0x158>
2001e34c:	0026f793          	andi	x15,x13,2
2001e350:	04078663          	beqz	x15,2001e39c <printi+0x158>
2001e354:	00012503          	lw	x10,0(x2)
2001e358:	02d00593          	li	x11,45
2001e35c:	00d12423          	sw	x13,8(x2)
2001e360:	00c12223          	sw	x12,4(x2)
2001e364:	d89ff0ef          	jal	x1,2001e0ec <printchar>
2001e368:	00412603          	lw	x12,4(x2)
2001e36c:	00812683          	lw	x13,8(x2)
2001e370:	fff60613          	addi	x12,x12,-1
2001e374:	00012503          	lw	x10,0(x2)
2001e378:	00048593          	mv	x11,x9
2001e37c:	d99ff0ef          	jal	x1,2001e114 <prints>
2001e380:	00850533          	add	x10,x10,x8
2001e384:	f01ff06f          	j	2001e284 <printi+0x40>
2001e388:	00000413          	li	x8,0
2001e38c:	f25ff06f          	j	2001e2b0 <printi+0x6c>
2001e390:	00050793          	mv	x15,x10
2001e394:	00048313          	mv	x6,x9
2001e398:	f2dff06f          	j	2001e2c4 <printi+0x80>
2001e39c:	02d00793          	li	x15,45
2001e3a0:	fef48fa3          	sb	x15,-1(x9)
2001e3a4:	00000413          	li	x8,0
2001e3a8:	ffe30493          	addi	x9,x6,-2
2001e3ac:	fc9ff06f          	j	2001e374 <printi+0x130>

2001e3b0 <print>:
2001e3b0:	fe010113          	addi	x2,x2,-32
2001e3b4:	00812c23          	sw	x8,24(x2)
2001e3b8:	00912a23          	sw	x9,20(x2)
2001e3bc:	00112e23          	sw	x1,28(x2)
2001e3c0:	00a12223          	sw	x10,4(x2)
2001e3c4:	00058313          	mv	x6,x11
2001e3c8:	00060413          	mv	x8,x12
2001e3cc:	00000493          	li	x9,0
2001e3d0:	00034783          	lbu	x15,0(x6)
2001e3d4:	02079663          	bnez	x15,2001e400 <print+0x50>
2001e3d8:	00412783          	lw	x15,4(x2)
2001e3dc:	00078663          	beqz	x15,2001e3e8 <print+0x38>
2001e3e0:	0007a783          	lw	x15,0(x15)
2001e3e4:	00078023          	sb	x0,0(x15)
2001e3e8:	01c12083          	lw	x1,28(x2)
2001e3ec:	01812403          	lw	x8,24(x2)
2001e3f0:	00048513          	mv	x10,x9
2001e3f4:	01412483          	lw	x9,20(x2)
2001e3f8:	02010113          	addi	x2,x2,32
2001e3fc:	00008067          	ret
2001e400:	02500713          	li	x14,37
2001e404:	1ae79463          	bne	x15,x14,2001e5ac <print+0x1fc>
2001e408:	00134683          	lbu	x13,1(x6)
2001e40c:	fc0686e3          	beqz	x13,2001e3d8 <print+0x28>
2001e410:	00130713          	addi	x14,x6,1
2001e414:	18f68a63          	beq	x13,x15,2001e5a8 <print+0x1f8>
2001e418:	02d00613          	li	x12,45
2001e41c:	00000793          	li	x15,0
2001e420:	00c69663          	bne	x13,x12,2001e42c <print+0x7c>
2001e424:	00230713          	addi	x14,x6,2
2001e428:	00100793          	li	x15,1
2001e42c:	00070313          	mv	x6,x14
2001e430:	03000713          	li	x14,48
2001e434:	00034683          	lbu	x13,0(x6)
2001e438:	00130613          	addi	x12,x6,1
2001e43c:	04e68e63          	beq	x13,x14,2001e498 <print+0xe8>
2001e440:	00000713          	li	x14,0
2001e444:	00900593          	li	x11,9
2001e448:	00034683          	lbu	x13,0(x6)
2001e44c:	00130393          	addi	x7,x6,1
2001e450:	fd068613          	addi	x12,x13,-48
2001e454:	0ff67513          	andi	x10,x12,255
2001e458:	04a5f663          	bgeu	x11,x10,2001e4a4 <print+0xf4>
2001e45c:	07300613          	li	x12,115
2001e460:	04c69e63          	bne	x13,x12,2001e4bc <print+0x10c>
2001e464:	00042683          	lw	x13,0(x8)
2001e468:	2001f637          	lui	x12,0x2001f
2001e46c:	00440393          	addi	x7,x8,4
2001e470:	3e460593          	addi	x11,x12,996 # 2001f3e4 <btypen.8+0x20>
2001e474:	00068463          	beqz	x13,2001e47c <print+0xcc>
2001e478:	00068593          	mv	x11,x13
2001e47c:	00612623          	sw	x6,12(x2)
2001e480:	00712423          	sw	x7,8(x2)
2001e484:	00078693          	mv	x13,x15
2001e488:	00070613          	mv	x12,x14
2001e48c:	00412503          	lw	x10,4(x2)
2001e490:	c85ff0ef          	jal	x1,2001e114 <prints>
2001e494:	0580006f          	j	2001e4ec <print+0x13c>
2001e498:	0027e793          	ori	x15,x15,2
2001e49c:	00060313          	mv	x6,x12
2001e4a0:	f95ff06f          	j	2001e434 <print+0x84>
2001e4a4:	00271693          	slli	x13,x14,0x2
2001e4a8:	00e68733          	add	x14,x13,x14
2001e4ac:	00171713          	slli	x14,x14,0x1
2001e4b0:	00e60733          	add	x14,x12,x14
2001e4b4:	00038313          	mv	x6,x7
2001e4b8:	f91ff06f          	j	2001e448 <print+0x98>
2001e4bc:	06400613          	li	x12,100
2001e4c0:	04c69263          	bne	x13,x12,2001e504 <print+0x154>
2001e4c4:	06100693          	li	x13,97
2001e4c8:	00440393          	addi	x7,x8,4
2001e4cc:	00042583          	lw	x11,0(x8)
2001e4d0:	00612623          	sw	x6,12(x2)
2001e4d4:	00d12023          	sw	x13,0(x2)
2001e4d8:	00712423          	sw	x7,8(x2)
2001e4dc:	00100693          	li	x13,1
2001e4e0:	00a00613          	li	x12,10
2001e4e4:	00412503          	lw	x10,4(x2)
2001e4e8:	d5dff0ef          	jal	x1,2001e244 <printi>
2001e4ec:	00812383          	lw	x7,8(x2)
2001e4f0:	00c12303          	lw	x6,12(x2)
2001e4f4:	00a484b3          	add	x9,x9,x10
2001e4f8:	00038413          	mv	x8,x7
2001e4fc:	00130313          	addi	x6,x6,1
2001e500:	ed1ff06f          	j	2001e3d0 <print+0x20>
2001e504:	07800613          	li	x12,120
2001e508:	02c69463          	bne	x13,x12,2001e530 <print+0x180>
2001e50c:	00042583          	lw	x11,0(x8)
2001e510:	00440393          	addi	x7,x8,4
2001e514:	00612623          	sw	x6,12(x2)
2001e518:	00712423          	sw	x7,8(x2)
2001e51c:	06100693          	li	x13,97
2001e520:	00d12023          	sw	x13,0(x2)
2001e524:	01000613          	li	x12,16
2001e528:	00000693          	li	x13,0
2001e52c:	fb9ff06f          	j	2001e4e4 <print+0x134>
2001e530:	05800613          	li	x12,88
2001e534:	00c69e63          	bne	x13,x12,2001e550 <print+0x1a0>
2001e538:	00440393          	addi	x7,x8,4
2001e53c:	00042583          	lw	x11,0(x8)
2001e540:	00612623          	sw	x6,12(x2)
2001e544:	00712423          	sw	x7,8(x2)
2001e548:	04100693          	li	x13,65
2001e54c:	fd5ff06f          	j	2001e520 <print+0x170>
2001e550:	07500613          	li	x12,117
2001e554:	02c69263          	bne	x13,x12,2001e578 <print+0x1c8>
2001e558:	06100693          	li	x13,97
2001e55c:	00440393          	addi	x7,x8,4
2001e560:	00042583          	lw	x11,0(x8)
2001e564:	00612623          	sw	x6,12(x2)
2001e568:	00d12023          	sw	x13,0(x2)
2001e56c:	00712423          	sw	x7,8(x2)
2001e570:	00000693          	li	x13,0
2001e574:	f6dff06f          	j	2001e4e0 <print+0x130>
2001e578:	06300613          	li	x12,99
2001e57c:	f8c690e3          	bne	x13,x12,2001e4fc <print+0x14c>
2001e580:	00042683          	lw	x13,0(x8)
2001e584:	00440393          	addi	x7,x8,4
2001e588:	00612623          	sw	x6,12(x2)
2001e58c:	00d10823          	sb	x13,16(x2)
2001e590:	00712423          	sw	x7,8(x2)
2001e594:	000108a3          	sb	x0,17(x2)
2001e598:	00078693          	mv	x13,x15
2001e59c:	00070613          	mv	x12,x14
2001e5a0:	01010593          	addi	x11,x2,16
2001e5a4:	ee9ff06f          	j	2001e48c <print+0xdc>
2001e5a8:	00070313          	mv	x6,x14
2001e5ac:	00034583          	lbu	x11,0(x6)
2001e5b0:	00412503          	lw	x10,4(x2)
2001e5b4:	00612423          	sw	x6,8(x2)
2001e5b8:	00148493          	addi	x9,x9,1
2001e5bc:	b31ff0ef          	jal	x1,2001e0ec <printchar>
2001e5c0:	00812303          	lw	x6,8(x2)
2001e5c4:	f39ff06f          	j	2001e4fc <print+0x14c>

2001e5c8 <_puts>:
2001e5c8:	ff410113          	addi	x2,x2,-12
2001e5cc:	00812223          	sw	x8,4(x2)
2001e5d0:	00112423          	sw	x1,8(x2)
2001e5d4:	00050413          	mv	x8,x10
2001e5d8:	00044503          	lbu	x10,0(x8)
2001e5dc:	00051a63          	bnez	x10,2001e5f0 <_puts+0x28>
2001e5e0:	00812083          	lw	x1,8(x2)
2001e5e4:	00412403          	lw	x8,4(x2)
2001e5e8:	00c10113          	addi	x2,x2,12
2001e5ec:	00008067          	ret
2001e5f0:	00140413          	addi	x8,x8,1
2001e5f4:	ae1ff0ef          	jal	x1,2001e0d4 <_putch>
2001e5f8:	fe1ff06f          	j	2001e5d8 <_puts+0x10>

2001e5fc <_printf>:
2001e5fc:	fdc10113          	addi	x2,x2,-36
2001e600:	00b12823          	sw	x11,16(x2)
2001e604:	00c12a23          	sw	x12,20(x2)
2001e608:	00050593          	mv	x11,x10
2001e60c:	01010613          	addi	x12,x2,16
2001e610:	00000513          	li	x10,0
2001e614:	00112623          	sw	x1,12(x2)
2001e618:	00d12c23          	sw	x13,24(x2)
2001e61c:	00e12e23          	sw	x14,28(x2)
2001e620:	02f12023          	sw	x15,32(x2)
2001e624:	00c12023          	sw	x12,0(x2)
2001e628:	d89ff0ef          	jal	x1,2001e3b0 <print>
2001e62c:	00c12083          	lw	x1,12(x2)
2001e630:	02410113          	addi	x2,x2,36
2001e634:	00008067          	ret

2001e638 <_sprintf>:
2001e638:	fdc10113          	addi	x2,x2,-36
2001e63c:	00a12023          	sw	x10,0(x2)
2001e640:	00c12a23          	sw	x12,20(x2)
2001e644:	00010513          	mv	x10,x2
2001e648:	01410613          	addi	x12,x2,20
2001e64c:	00112823          	sw	x1,16(x2)
2001e650:	00d12c23          	sw	x13,24(x2)
2001e654:	00e12e23          	sw	x14,28(x2)
2001e658:	02f12023          	sw	x15,32(x2)
2001e65c:	00c12223          	sw	x12,4(x2)
2001e660:	d51ff0ef          	jal	x1,2001e3b0 <print>
2001e664:	01012083          	lw	x1,16(x2)
2001e668:	02410113          	addi	x2,x2,36
2001e66c:	00008067          	ret

2001e670 <_getch>:
2001e670:	e0000737          	lui	x14,0xe0000
2001e674:	00472783          	lw	x15,4(x14) # e0000004 <_ebss+0xbffe073c>
2001e678:	0017f793          	andi	x15,x15,1
2001e67c:	fe078ce3          	beqz	x15,2001e674 <_getch+0x4>
2001e680:	00072503          	lw	x10,0(x14)
2001e684:	00008067          	ret

2001e688 <_getsn>:
2001e688:	fec10113          	addi	x2,x2,-20
2001e68c:	00812623          	sw	x8,12(x2)
2001e690:	00912423          	sw	x9,8(x2)
2001e694:	00112823          	sw	x1,16(x2)
2001e698:	00050413          	mv	x8,x10
2001e69c:	00b12023          	sw	x11,0(x2)
2001e6a0:	00050493          	mv	x9,x10
2001e6a4:	fcdff0ef          	jal	x1,2001e670 <_getch>
2001e6a8:	00a00693          	li	x13,10
2001e6ac:	06d50063          	beq	x10,x13,2001e70c <_getsn+0x84>
2001e6b0:	00d00693          	li	x13,13
2001e6b4:	04d50c63          	beq	x10,x13,2001e70c <_getsn+0x84>
2001e6b8:	00800693          	li	x13,8
2001e6bc:	00d50663          	beq	x10,x13,2001e6c8 <_getsn+0x40>
2001e6c0:	07f00693          	li	x13,127
2001e6c4:	00d51e63          	bne	x10,x13,2001e6e0 <_getsn+0x58>
2001e6c8:	fc848ee3          	beq	x9,x8,2001e6a4 <_getsn+0x1c>
2001e6cc:	2001f7b7          	lui	x15,0x2001f
2001e6d0:	3ec78513          	addi	x10,x15,1004 # 2001f3ec <btypen.8+0x28>
2001e6d4:	ef5ff0ef          	jal	x1,2001e5c8 <_puts>
2001e6d8:	fff48493          	addi	x9,x9,-1
2001e6dc:	fc9ff06f          	j	2001e6a4 <_getsn+0x1c>
2001e6e0:	00012783          	lw	x15,0(x2)
2001e6e4:	408486b3          	sub	x13,x9,x8
2001e6e8:	fff78613          	addi	x12,x15,-1
2001e6ec:	fac6dce3          	bge	x13,x12,2001e6a4 <_getsn+0x1c>
2001e6f0:	00148693          	addi	x13,x9,1
2001e6f4:	00a48023          	sb	x10,0(x9)
2001e6f8:	00d12223          	sw	x13,4(x2)
2001e6fc:	9d9ff0ef          	jal	x1,2001e0d4 <_putch>
2001e700:	00412683          	lw	x13,4(x2)
2001e704:	00068493          	mv	x9,x13
2001e708:	f9dff06f          	j	2001e6a4 <_getsn+0x1c>
2001e70c:	00048023          	sb	x0,0(x9)
2001e710:	40848533          	sub	x10,x9,x8
2001e714:	01012083          	lw	x1,16(x2)
2001e718:	00c12403          	lw	x8,12(x2)
2001e71c:	00812483          	lw	x9,8(x2)
2001e720:	01410113          	addi	x2,x2,20
2001e724:	00008067          	ret

2001e728 <rdhex>:
2001e728:	00050713          	mv	x14,x10
2001e72c:	05a00613          	li	x12,90
2001e730:	00000513          	li	x10,0
2001e734:	00900593          	li	x11,9
2001e738:	00500313          	li	x6,5
2001e73c:	00074783          	lbu	x15,0(x14)
2001e740:	00170713          	addi	x14,x14,1
2001e744:	00f67463          	bgeu	x12,x15,2001e74c <rdhex+0x24>
2001e748:	fe078793          	addi	x15,x15,-32
2001e74c:	fd078693          	addi	x13,x15,-48
2001e750:	00d5f863          	bgeu	x11,x13,2001e760 <rdhex+0x38>
2001e754:	fbf78693          	addi	x13,x15,-65
2001e758:	00d36a63          	bltu	x6,x13,2001e76c <rdhex+0x44>
2001e75c:	fc978693          	addi	x13,x15,-55
2001e760:	00451513          	slli	x10,x10,0x4
2001e764:	00a68533          	add	x10,x13,x10
2001e768:	fd5ff06f          	j	2001e73c <rdhex+0x14>
2001e76c:	00008067          	ret

2001e770 <hexdump>:
2001e770:	fec10113          	addi	x2,x2,-20
2001e774:	10050793          	addi	x15,x10,256
2001e778:	00812623          	sw	x8,12(x2)
2001e77c:	00912423          	sw	x9,8(x2)
2001e780:	00112823          	sw	x1,16(x2)
2001e784:	00050413          	mv	x8,x10
2001e788:	00f12023          	sw	x15,0(x2)
2001e78c:	2001f4b7          	lui	x9,0x2001f
2001e790:	00040593          	mv	x11,x8
2001e794:	3f048513          	addi	x10,x9,1008 # 2001f3f0 <btypen.8+0x2c>
2001e798:	e65ff0ef          	jal	x1,2001e5fc <_printf>
2001e79c:	00000793          	li	x15,0
2001e7a0:	2001f6b7          	lui	x13,0x2001f
2001e7a4:	00f40733          	add	x14,x8,x15
2001e7a8:	00074583          	lbu	x11,0(x14)
2001e7ac:	3f868513          	addi	x10,x13,1016 # 2001f3f8 <btypen.8+0x34>
2001e7b0:	00f12223          	sw	x15,4(x2)
2001e7b4:	e49ff0ef          	jal	x1,2001e5fc <_printf>
2001e7b8:	00412783          	lw	x15,4(x2)
2001e7bc:	01000713          	li	x14,16
2001e7c0:	2001f6b7          	lui	x13,0x2001f
2001e7c4:	00178793          	addi	x15,x15,1
2001e7c8:	fce79ee3          	bne	x15,x14,2001e7a4 <hexdump+0x34>
2001e7cc:	02000513          	li	x10,32
2001e7d0:	905ff0ef          	jal	x1,2001e0d4 <_putch>
2001e7d4:	00000793          	li	x15,0
2001e7d8:	00f40733          	add	x14,x8,x15
2001e7dc:	00074503          	lbu	x10,0(x14)
2001e7e0:	05e00693          	li	x13,94
2001e7e4:	fe050713          	addi	x14,x10,-32
2001e7e8:	0ff77713          	andi	x14,x14,255
2001e7ec:	00e6f463          	bgeu	x13,x14,2001e7f4 <hexdump+0x84>
2001e7f0:	02e00513          	li	x10,46
2001e7f4:	00f12223          	sw	x15,4(x2)
2001e7f8:	8ddff0ef          	jal	x1,2001e0d4 <_putch>
2001e7fc:	00412783          	lw	x15,4(x2)
2001e800:	01000713          	li	x14,16
2001e804:	00178793          	addi	x15,x15,1
2001e808:	fce798e3          	bne	x15,x14,2001e7d8 <hexdump+0x68>
2001e80c:	00a00513          	li	x10,10
2001e810:	8c5ff0ef          	jal	x1,2001e0d4 <_putch>
2001e814:	00012783          	lw	x15,0(x2)
2001e818:	01040413          	addi	x8,x8,16
2001e81c:	f6f41ae3          	bne	x8,x15,2001e790 <hexdump+0x20>
2001e820:	01012083          	lw	x1,16(x2)
2001e824:	00c12403          	lw	x8,12(x2)
2001e828:	00812483          	lw	x9,8(x2)
2001e82c:	01410113          	addi	x2,x2,20
2001e830:	00008067          	ret

2001e834 <dissasemble>:
2001e834:	fec10113          	addi	x2,x2,-20
2001e838:	00755793          	srli	x15,x10,0x7
2001e83c:	01455693          	srli	x13,x10,0x14
2001e840:	00812623          	sw	x8,12(x2)
2001e844:	00912423          	sw	x9,8(x2)
2001e848:	00b12023          	sw	x11,0(x2)
2001e84c:	00f12223          	sw	x15,4(x2)
2001e850:	00c55293          	srli	x5,x10,0xc
2001e854:	00f55413          	srli	x8,x10,0xf
2001e858:	00112823          	sw	x1,16(x2)
2001e85c:	00b6d393          	srli	x7,x13,0xb
2001e860:	01f7f593          	andi	x11,x15,31
2001e864:	07f57313          	andi	x6,x10,127
2001e868:	0072f793          	andi	x15,x5,7
2001e86c:	01f47413          	andi	x8,x8,31
2001e870:	01f6f493          	andi	x9,x13,31
2001e874:	01955713          	srli	x14,x10,0x19
2001e878:	00068613          	mv	x12,x13
2001e87c:	00038663          	beqz	x7,2001e888 <dissasemble+0x54>
2001e880:	fffff637          	lui	x12,0xfffff
2001e884:	00c6e633          	or	x12,x13,x12
2001e888:	03700393          	li	x7,55
2001e88c:	2a730063          	beq	x6,x7,2001eb2c <dissasemble+0x2f8>
2001e890:	0863e063          	bltu	x7,x6,2001e910 <dissasemble+0xdc>
2001e894:	01700693          	li	x13,23
2001e898:	2ad30a63          	beq	x6,x13,2001eb4c <dissasemble+0x318>
2001e89c:	0266e063          	bltu	x13,x6,2001e8bc <dissasemble+0x88>
2001e8a0:	00300713          	li	x14,3
2001e8a4:	16e30463          	beq	x6,x14,2001ea0c <dissasemble+0x1d8>
2001e8a8:	01300713          	li	x14,19
2001e8ac:	0ee30c63          	beq	x6,x14,2001e9a4 <dissasemble+0x170>
2001e8b0:	2001f537          	lui	x10,0x2001f
2001e8b4:	4f850513          	addi	x10,x10,1272 # 2001f4f8 <btypen.8+0x134>
2001e8b8:	0a00006f          	j	2001e958 <dissasemble+0x124>
2001e8bc:	02300693          	li	x13,35
2001e8c0:	18d30863          	beq	x6,x13,2001ea50 <dissasemble+0x21c>
2001e8c4:	03300693          	li	x13,51
2001e8c8:	fed314e3          	bne	x6,x13,2001e8b0 <dissasemble+0x7c>
2001e8cc:	02000693          	li	x13,32
2001e8d0:	0ad71a63          	bne	x14,x13,2001e984 <dissasemble+0x150>
2001e8d4:	08079c63          	bnez	x15,2001e96c <dissasemble+0x138>
2001e8d8:	2001f537          	lui	x10,0x2001f
2001e8dc:	00b12023          	sw	x11,0(x2)
2001e8e0:	41050513          	addi	x10,x10,1040 # 2001f410 <btypen.8+0x4c>
2001e8e4:	ce5ff0ef          	jal	x1,2001e5c8 <_puts>
2001e8e8:	00012583          	lw	x11,0(x2)
2001e8ec:	2001f537          	lui	x10,0x2001f
2001e8f0:	00048693          	mv	x13,x9
2001e8f4:	00040613          	mv	x12,x8
2001e8f8:	42050513          	addi	x10,x10,1056 # 2001f420 <btypen.8+0x5c>
2001e8fc:	00c12403          	lw	x8,12(x2)
2001e900:	01012083          	lw	x1,16(x2)
2001e904:	00812483          	lw	x9,8(x2)
2001e908:	01410113          	addi	x2,x2,20
2001e90c:	cf1ff06f          	j	2001e5fc <_printf>
2001e910:	06f00293          	li	x5,111
2001e914:	24530463          	beq	x6,x5,2001eb5c <dissasemble+0x328>
2001e918:	0262e263          	bltu	x5,x6,2001e93c <dissasemble+0x108>
2001e91c:	06300693          	li	x13,99
2001e920:	16d30863          	beq	x6,x13,2001ea90 <dissasemble+0x25c>
2001e924:	06700793          	li	x15,103
2001e928:	f8f314e3          	bne	x6,x15,2001e8b0 <dissasemble+0x7c>
2001e92c:	2001f537          	lui	x10,0x2001f
2001e930:	00040693          	mv	x13,x8
2001e934:	47450513          	addi	x10,x10,1140 # 2001f474 <btypen.8+0xb0>
2001e938:	fc5ff06f          	j	2001e8fc <dissasemble+0xc8>
2001e93c:	07300713          	li	x14,115
2001e940:	f6e318e3          	bne	x6,x14,2001e8b0 <dissasemble+0x7c>
2001e944:	30200737          	lui	x14,0x30200
2001e948:	07370713          	addi	x14,x14,115 # 30200073 <_ebss+0x101e07ab>
2001e94c:	1ae51663          	bne	x10,x14,2001eaf8 <dissasemble+0x2c4>
2001e950:	2001f537          	lui	x10,0x2001f
2001e954:	48c50513          	addi	x10,x10,1164 # 2001f48c <btypen.8+0xc8>
2001e958:	00c12403          	lw	x8,12(x2)
2001e95c:	01012083          	lw	x1,16(x2)
2001e960:	00812483          	lw	x9,8(x2)
2001e964:	01410113          	addi	x2,x2,20
2001e968:	c61ff06f          	j	2001e5c8 <_puts>
2001e96c:	00500713          	li	x14,5
2001e970:	f4e790e3          	bne	x15,x14,2001e8b0 <dissasemble+0x7c>
2001e974:	2001f537          	lui	x10,0x2001f
2001e978:	00b12023          	sw	x11,0(x2)
2001e97c:	41850513          	addi	x10,x10,1048 # 2001f418 <btypen.8+0x54>
2001e980:	f65ff06f          	j	2001e8e4 <dissasemble+0xb0>
2001e984:	00b12023          	sw	x11,0(x2)
2001e988:	f20714e3          	bnez	x14,2001e8b0 <dissasemble+0x7c>
2001e98c:	00279713          	slli	x14,x15,0x2
2001e990:	2001f7b7          	lui	x15,0x2001f
2001e994:	36078793          	addi	x15,x15,864 # 2001f360 <rtypen.12>
2001e998:	00e787b3          	add	x15,x15,x14
2001e99c:	0007a503          	lw	x10,0(x15)
2001e9a0:	f45ff06f          	j	2001e8e4 <dissasemble+0xb0>
2001e9a4:	00500713          	li	x14,5
2001e9a8:	00b12223          	sw	x11,4(x2)
2001e9ac:	00c12023          	sw	x12,0(x2)
2001e9b0:	02e79c63          	bne	x15,x14,2001e9e8 <dissasemble+0x1b4>
2001e9b4:	00565713          	srli	x14,x12,0x5
2001e9b8:	02070863          	beqz	x14,2001e9e8 <dissasemble+0x1b4>
2001e9bc:	2001f537          	lui	x10,0x2001f
2001e9c0:	43450513          	addi	x10,x10,1076 # 2001f434 <btypen.8+0x70>
2001e9c4:	c05ff0ef          	jal	x1,2001e5c8 <_puts>
2001e9c8:	00012603          	lw	x12,0(x2)
2001e9cc:	00412583          	lw	x11,4(x2)
2001e9d0:	01f67613          	andi	x12,x12,31
2001e9d4:	2001f537          	lui	x10,0x2001f
2001e9d8:	00060693          	mv	x13,x12
2001e9dc:	43c50513          	addi	x10,x10,1084 # 2001f43c <btypen.8+0x78>
2001e9e0:	00040613          	mv	x12,x8
2001e9e4:	f19ff06f          	j	2001e8fc <dissasemble+0xc8>
2001e9e8:	00279713          	slli	x14,x15,0x2
2001e9ec:	2001f7b7          	lui	x15,0x2001f
2001e9f0:	36078793          	addi	x15,x15,864 # 2001f360 <rtypen.12>
2001e9f4:	00e787b3          	add	x15,x15,x14
2001e9f8:	0207a503          	lw	x10,32(x15)
2001e9fc:	bcdff0ef          	jal	x1,2001e5c8 <_puts>
2001ea00:	00412583          	lw	x11,4(x2)
2001ea04:	00012603          	lw	x12,0(x2)
2001ea08:	fcdff06f          	j	2001e9d4 <dissasemble+0x1a0>
2001ea0c:	00500713          	li	x14,5
2001ea10:	eaf760e3          	bltu	x14,x15,2001e8b0 <dissasemble+0x7c>
2001ea14:	00279713          	slli	x14,x15,0x2
2001ea18:	2001f7b7          	lui	x15,0x2001f
2001ea1c:	36078793          	addi	x15,x15,864 # 2001f360 <rtypen.12>
2001ea20:	00e787b3          	add	x15,x15,x14
2001ea24:	00060693          	mv	x13,x12
2001ea28:	00058613          	mv	x12,x11
2001ea2c:	0407a583          	lw	x11,64(x15)
2001ea30:	00040713          	mv	x14,x8
2001ea34:	2001f537          	lui	x10,0x2001f
2001ea38:	44c50513          	addi	x10,x10,1100 # 2001f44c <btypen.8+0x88>
2001ea3c:	00c12403          	lw	x8,12(x2)
2001ea40:	01012083          	lw	x1,16(x2)
2001ea44:	00812483          	lw	x9,8(x2)
2001ea48:	01410113          	addi	x2,x2,20
2001ea4c:	bb1ff06f          	j	2001e5fc <_printf>
2001ea50:	00571713          	slli	x14,x14,0x5
2001ea54:	00b766b3          	or	x13,x14,x11
2001ea58:	00b75713          	srli	x14,x14,0xb
2001ea5c:	00070663          	beqz	x14,2001ea68 <dissasemble+0x234>
2001ea60:	fffff737          	lui	x14,0xfffff
2001ea64:	00e6e6b3          	or	x13,x13,x14
2001ea68:	00200713          	li	x14,2
2001ea6c:	e4f762e3          	bltu	x14,x15,2001e8b0 <dissasemble+0x7c>
2001ea70:	00279713          	slli	x14,x15,0x2
2001ea74:	2001f7b7          	lui	x15,0x2001f
2001ea78:	36078793          	addi	x15,x15,864 # 2001f360 <rtypen.12>
2001ea7c:	00e787b3          	add	x15,x15,x14
2001ea80:	0587a583          	lw	x11,88(x15)
2001ea84:	00040713          	mv	x14,x8
2001ea88:	00048613          	mv	x12,x9
2001ea8c:	fa9ff06f          	j	2001ea34 <dissasemble+0x200>
2001ea90:	00571713          	slli	x14,x14,0x5
2001ea94:	00755693          	srli	x13,x10,0x7
2001ea98:	01e6f693          	andi	x13,x13,30
2001ea9c:	7e077713          	andi	x14,x14,2016
2001eaa0:	00d76733          	or	x14,x14,x13
2001eaa4:	00755693          	srli	x13,x10,0x7
2001eaa8:	0016f693          	andi	x13,x13,1
2001eaac:	00068863          	beqz	x13,2001eabc <dissasemble+0x288>
2001eab0:	000016b7          	lui	x13,0x1
2001eab4:	80068693          	addi	x13,x13,-2048 # 800 <start-0x2001d800>
2001eab8:	00d76733          	or	x14,x14,x13
2001eabc:	00055663          	bgez	x10,2001eac8 <dissasemble+0x294>
2001eac0:	fffff6b7          	lui	x13,0xfffff
2001eac4:	00d76733          	or	x14,x14,x13
2001eac8:	00279693          	slli	x13,x15,0x2
2001eacc:	2001f7b7          	lui	x15,0x2001f
2001ead0:	36078793          	addi	x15,x15,864 # 2001f360 <rtypen.12>
2001ead4:	00d787b3          	add	x15,x15,x13
2001ead8:	00012683          	lw	x13,0(x2)
2001eadc:	2001f537          	lui	x10,0x2001f
2001eae0:	0647a583          	lw	x11,100(x15)
2001eae4:	00d70733          	add	x14,x14,x13
2001eae8:	00040613          	mv	x12,x8
2001eaec:	00048693          	mv	x13,x9
2001eaf0:	46050513          	addi	x10,x10,1120 # 2001f460 <btypen.8+0x9c>
2001eaf4:	f49ff06f          	j	2001ea3c <dissasemble+0x208>
2001eaf8:	00100713          	li	x14,1
2001eafc:	00e79a63          	bne	x15,x14,2001eb10 <dissasemble+0x2dc>
2001eb00:	2001f537          	lui	x10,0x2001f
2001eb04:	00040693          	mv	x13,x8
2001eb08:	49450513          	addi	x10,x10,1172 # 2001f494 <btypen.8+0xd0>
2001eb0c:	df1ff06f          	j	2001e8fc <dissasemble+0xc8>
2001eb10:	00061863          	bnez	x12,2001eb20 <dissasemble+0x2ec>
2001eb14:	2001f537          	lui	x10,0x2001f
2001eb18:	40850513          	addi	x10,x10,1032 # 2001f408 <btypen.8+0x44>
2001eb1c:	e3dff06f          	j	2001e958 <dissasemble+0x124>
2001eb20:	2001f537          	lui	x10,0x2001f
2001eb24:	40050513          	addi	x10,x10,1024 # 2001f400 <btypen.8+0x3c>
2001eb28:	e31ff06f          	j	2001e958 <dissasemble+0x124>
2001eb2c:	2001f537          	lui	x10,0x2001f
2001eb30:	00028613          	mv	x12,x5
2001eb34:	4ac50513          	addi	x10,x10,1196 # 2001f4ac <btypen.8+0xe8>
2001eb38:	00c12403          	lw	x8,12(x2)
2001eb3c:	01012083          	lw	x1,16(x2)
2001eb40:	00812483          	lw	x9,8(x2)
2001eb44:	01410113          	addi	x2,x2,20
2001eb48:	ab5ff06f          	j	2001e5fc <_printf>
2001eb4c:	2001f537          	lui	x10,0x2001f
2001eb50:	00028613          	mv	x12,x5
2001eb54:	4c050513          	addi	x10,x10,1216 # 2001f4c0 <btypen.8+0xfc>
2001eb58:	fe1ff06f          	j	2001eb38 <dissasemble+0x304>
2001eb5c:	000ff637          	lui	x12,0xff
2001eb60:	001007b7          	lui	x15,0x100
2001eb64:	00c57633          	and	x12,x10,x12
2001eb68:	7fe6f693          	andi	x13,x13,2046
2001eb6c:	00f577b3          	and	x15,x10,x15
2001eb70:	00d66633          	or	x12,x12,x13
2001eb74:	00078863          	beqz	x15,2001eb84 <dissasemble+0x350>
2001eb78:	000017b7          	lui	x15,0x1
2001eb7c:	80078793          	addi	x15,x15,-2048 # 800 <start-0x2001d800>
2001eb80:	00f66633          	or	x12,x12,x15
2001eb84:	00055663          	bgez	x10,2001eb90 <dissasemble+0x35c>
2001eb88:	fff007b7          	lui	x15,0xfff00
2001eb8c:	00f66633          	or	x12,x12,x15
2001eb90:	00012783          	lw	x15,0(x2)
2001eb94:	00f60633          	add	x12,x12,x15
2001eb98:	00058863          	beqz	x11,2001eba8 <dissasemble+0x374>
2001eb9c:	2001f537          	lui	x10,0x2001f
2001eba0:	4d450513          	addi	x10,x10,1236 # 2001f4d4 <btypen.8+0x110>
2001eba4:	f95ff06f          	j	2001eb38 <dissasemble+0x304>
2001eba8:	00c12403          	lw	x8,12(x2)
2001ebac:	01012083          	lw	x1,16(x2)
2001ebb0:	00812483          	lw	x9,8(x2)
2001ebb4:	2001f537          	lui	x10,0x2001f
2001ebb8:	00060593          	mv	x11,x12
2001ebbc:	4e850513          	addi	x10,x10,1256 # 2001f4e8 <btypen.8+0x124>
2001ebc0:	01410113          	addi	x2,x2,20
2001ebc4:	a39ff06f          	j	2001e5fc <_printf>

2001ebc8 <help>:
2001ebc8:	2001f537          	lui	x10,0x2001f
2001ebcc:	50050513          	addi	x10,x10,1280 # 2001f500 <btypen.8+0x13c>
2001ebd0:	9f9ff06f          	j	2001e5c8 <_puts>

2001ebd4 <singlestep>:
2001ebd4:	fd410113          	addi	x2,x2,-44
2001ebd8:	02812223          	sw	x8,36(x2)
2001ebdc:	03c52403          	lw	x8,60(x10)
2001ebe0:	02912023          	sw	x9,32(x2)
2001ebe4:	fff007b7          	lui	x15,0xfff00
2001ebe8:	ffc42483          	lw	x9,-4(x8)
2001ebec:	fff78793          	addi	x15,x15,-1 # ffefffff <_ebss+0xdfee0737>
2001ebf0:	02112423          	sw	x1,40(x2)
2001ebf4:	00f4f4b3          	and	x9,x9,x15
2001ebf8:	00a12023          	sw	x10,0(x2)
2001ebfc:	00812223          	sw	x8,4(x2)
2001ec00:	07300793          	li	x15,115
2001ec04:	02f49e63          	bne	x9,x15,2001ec40 <singlestep+0x6c>
2001ec08:	2001f537          	lui	x10,0x2001f
2001ec0c:	69850513          	addi	x10,x10,1688 # 2001f698 <btypen.8+0x2d4>
2001ec10:	9b9ff0ef          	jal	x1,2001e5c8 <_puts>
2001ec14:	ffc42783          	lw	x15,-4(x8)
2001ec18:	1a978a63          	beq	x15,x9,2001edcc <singlestep+0x1f8>
2001ec1c:	2001f537          	lui	x10,0x2001f
2001ec20:	40050513          	addi	x10,x10,1024 # 2001f400 <btypen.8+0x3c>
2001ec24:	9a5ff0ef          	jal	x1,2001e5c8 <_puts>
2001ec28:	e0000737          	lui	x14,0xe0000
2001ec2c:	0e072783          	lw	x15,224(x14) # e00000e0 <_ebss+0xbffe0818>
2001ec30:	0087e793          	ori	x15,x15,8
2001ec34:	0ef72023          	sw	x15,224(x14)
2001ec38:	200207b7          	lui	x15,0x20020
2001ec3c:	8c078223          	sb	x0,-1852(x15) # 2001f8c4 <notrace.7>
2001ec40:	e00007b7          	lui	x15,0xe0000
2001ec44:	0047a703          	lw	x14,4(x15) # e0000004 <_ebss+0xbffe073c>
2001ec48:	01077713          	andi	x14,x14,16
2001ec4c:	18070663          	beqz	x14,2001edd8 <singlestep+0x204>
2001ec50:	0007a703          	lw	x14,0(x15)
2001ec54:	0e07a703          	lw	x14,224(x15)
2001ec58:	00876713          	ori	x14,x14,8
2001ec5c:	0ee7a023          	sw	x14,224(x15)
2001ec60:	200207b7          	lui	x15,0x20020
2001ec64:	8c078223          	sb	x0,-1852(x15) # 2001f8c4 <notrace.7>
2001ec68:	e00007b7          	lui	x15,0xe0000
2001ec6c:	0047a783          	lw	x15,4(x15) # e0000004 <_ebss+0xbffe073c>
2001ec70:	0207f793          	andi	x15,x15,32
2001ec74:	00078a63          	beqz	x15,2001ec88 <singlestep+0xb4>
2001ec78:	2001f537          	lui	x10,0x2001f
2001ec7c:	6a850513          	addi	x10,x10,1704 # 2001f6a8 <btypen.8+0x2e4>
2001ec80:	949ff0ef          	jal	x1,2001e5c8 <_puts>
2001ec84:	9edff0ef          	jal	x1,2001e670 <_getch>
2001ec88:	200207b7          	lui	x15,0x20020
2001ec8c:	8c47c783          	lbu	x15,-1852(x15) # 2001f8c4 <notrace.7>
2001ec90:	1e079a63          	bnez	x15,2001ee84 <singlestep+0x2b0>
2001ec94:	200207b7          	lui	x15,0x20020
2001ec98:	8a078c23          	sb	x0,-1864(x15) # 2001f8b8 <stopjalr.4>
2001ec9c:	e00007b7          	lui	x15,0xe0000
2001eca0:	0e07a703          	lw	x14,224(x15) # e00000e0 <_ebss+0xbffe0818>
2001eca4:	00012783          	lw	x15,0(x2)
2001eca8:	200204b7          	lui	x9,0x20020
2001ecac:	8c04a683          	lw	x13,-1856(x9) # 2001f8c0 <brk.6>
2001ecb0:	0047a603          	lw	x12,4(x15)
2001ecb4:	03c7a583          	lw	x11,60(x15)
2001ecb8:	2001f537          	lui	x10,0x2001f
2001ecbc:	6b450513          	addi	x10,x10,1716 # 2001f6b4 <btypen.8+0x2f0>
2001ecc0:	93dff0ef          	jal	x1,2001e5fc <_printf>
2001ecc4:	00000413          	li	x8,0
2001ecc8:	00912623          	sw	x9,12(x2)
2001eccc:	2001f7b7          	lui	x15,0x2001f
2001ecd0:	6f478513          	addi	x10,x15,1780 # 2001f6f4 <btypen.8+0x330>
2001ecd4:	00040593          	mv	x11,x8
2001ecd8:	925ff0ef          	jal	x1,2001e5fc <_printf>
2001ecdc:	00012783          	lw	x15,0(x2)
2001ece0:	00241493          	slli	x9,x8,0x2
2001ece4:	009787b3          	add	x15,x15,x9
2001ece8:	00f12423          	sw	x15,8(x2)
2001ecec:	00000493          	li	x9,0
2001ecf0:	00848733          	add	x14,x9,x8
2001ecf4:	14071e63          	bnez	x14,2001ee50 <singlestep+0x27c>
2001ecf8:	2001f537          	lui	x10,0x2001f
2001ecfc:	6fc50513          	addi	x10,x10,1788 # 2001f6fc <btypen.8+0x338>
2001ed00:	8c9ff0ef          	jal	x1,2001e5c8 <_puts>
2001ed04:	00300713          	li	x14,3
2001ed08:	00e49863          	bne	x9,x14,2001ed18 <singlestep+0x144>
2001ed0c:	2001f537          	lui	x10,0x2001f
2001ed10:	7c450513          	addi	x10,x10,1988 # 2001f7c4 <btypen.8+0x400>
2001ed14:	8b5ff0ef          	jal	x1,2001e5c8 <_puts>
2001ed18:	00812783          	lw	x15,8(x2)
2001ed1c:	00148493          	addi	x9,x9,1
2001ed20:	00800713          	li	x14,8
2001ed24:	00478793          	addi	x15,x15,4
2001ed28:	00f12423          	sw	x15,8(x2)
2001ed2c:	fce492e3          	bne	x9,x14,2001ecf0 <singlestep+0x11c>
2001ed30:	00a00513          	li	x10,10
2001ed34:	ba0ff0ef          	jal	x1,2001e0d4 <_putch>
2001ed38:	00840413          	addi	x8,x8,8
2001ed3c:	01000793          	li	x15,16
2001ed40:	f8f416e3          	bne	x8,x15,2001eccc <singlestep+0xf8>
2001ed44:	00a00513          	li	x10,10
2001ed48:	b8cff0ef          	jal	x1,2001e0d4 <_putch>
2001ed4c:	00412783          	lw	x15,4(x2)
2001ed50:	00412403          	lw	x8,4(x2)
2001ed54:	2001f737          	lui	x14,0x2001f
2001ed58:	04078793          	addi	x15,x15,64
2001ed5c:	00042483          	lw	x9,0(x8)
2001ed60:	00040593          	mv	x11,x8
2001ed64:	71070513          	addi	x10,x14,1808 # 2001f710 <btypen.8+0x34c>
2001ed68:	00048613          	mv	x12,x9
2001ed6c:	00f12423          	sw	x15,8(x2)
2001ed70:	88dff0ef          	jal	x1,2001e5fc <_printf>
2001ed74:	00040593          	mv	x11,x8
2001ed78:	00048513          	mv	x10,x9
2001ed7c:	ab9ff0ef          	jal	x1,2001e834 <dissasemble>
2001ed80:	00812783          	lw	x15,8(x2)
2001ed84:	00440413          	addi	x8,x8,4
2001ed88:	2001f737          	lui	x14,0x2001f
2001ed8c:	fc8798e3          	bne	x15,x8,2001ed5c <singlestep+0x188>
2001ed90:	2001f7b7          	lui	x15,0x2001f
2001ed94:	72078513          	addi	x10,x15,1824 # 2001f720 <btypen.8+0x35c>
2001ed98:	831ff0ef          	jal	x1,2001e5c8 <_puts>
2001ed9c:	8d5ff0ef          	jal	x1,2001e670 <_getch>
2001eda0:	00050413          	mv	x8,x10
2001eda4:	b30ff0ef          	jal	x1,2001e0d4 <_putch>
2001eda8:	fae40513          	addi	x10,x8,-82
2001edac:	02600793          	li	x15,38
2001edb0:	26a7ec63          	bltu	x15,x10,2001f028 <singlestep+0x454>
2001edb4:	2001f7b7          	lui	x15,0x2001f
2001edb8:	2c478793          	addi	x15,x15,708 # 2001f2c4 <main+0x38>
2001edbc:	00251513          	slli	x10,x10,0x2
2001edc0:	00f50533          	add	x10,x10,x15
2001edc4:	00052783          	lw	x15,0(x10)
2001edc8:	00078067          	jr	x15
2001edcc:	2001f537          	lui	x10,0x2001f
2001edd0:	40850513          	addi	x10,x10,1032 # 2001f408 <btypen.8+0x44>
2001edd4:	e51ff06f          	j	2001ec24 <singlestep+0x50>
2001edd8:	200207b7          	lui	x15,0x20020
2001eddc:	8c47c783          	lbu	x15,-1852(x15) # 2001f8c4 <notrace.7>
2001ede0:	e80784e3          	beqz	x15,2001ec68 <singlestep+0x94>
2001ede4:	200207b7          	lui	x15,0x20020
2001ede8:	8c07a783          	lw	x15,-1856(x15) # 2001f8c0 <brk.6>
2001edec:	e6f40ae3          	beq	x8,x15,2001ec60 <singlestep+0x8c>
2001edf0:	200207b7          	lui	x15,0x20020
2001edf4:	8bc7a703          	lw	x14,-1860(x15) # 2001f8bc <tbrk.5>
2001edf8:	00e41663          	bne	x8,x14,2001ee04 <singlestep+0x230>
2001edfc:	8a07ae23          	sw	x0,-1860(x15)
2001ee00:	e61ff06f          	j	2001ec60 <singlestep+0x8c>
2001ee04:	200207b7          	lui	x15,0x20020
2001ee08:	8b87c703          	lbu	x14,-1864(x15) # 2001f8b8 <stopjalr.4>
2001ee0c:	02070863          	beqz	x14,2001ee3c <singlestep+0x268>
2001ee10:	ffc42683          	lw	x13,-4(x8)
2001ee14:	000087b7          	lui	x15,0x8
2001ee18:	06778793          	addi	x15,x15,103 # 8067 <start-0x20015f99>
2001ee1c:	02f69063          	bne	x13,x15,2001ee3c <singlestep+0x268>
2001ee20:	00100793          	li	x15,1
2001ee24:	e2f70ee3          	beq	x14,x15,2001ec60 <singlestep+0x8c>
2001ee28:	00012783          	lw	x15,0(x2)
2001ee2c:	0047a703          	lw	x14,4(x15)
2001ee30:	200207b7          	lui	x15,0x20020
2001ee34:	8b47a783          	lw	x15,-1868(x15) # 2001f8b4 <stacklevel.3>
2001ee38:	e2e7e4e3          	bltu	x15,x14,2001ec60 <singlestep+0x8c>
2001ee3c:	02812083          	lw	x1,40(x2)
2001ee40:	02412403          	lw	x8,36(x2)
2001ee44:	02012483          	lw	x9,32(x2)
2001ee48:	02c10113          	addi	x2,x2,44
2001ee4c:	00008067          	ret
2001ee50:	00812783          	lw	x15,8(x2)
2001ee54:	ffc7a583          	lw	x11,-4(x15)
2001ee58:	2001f7b7          	lui	x15,0x2001f
2001ee5c:	70878513          	addi	x10,x15,1800 # 2001f708 <btypen.8+0x344>
2001ee60:	f9cff0ef          	jal	x1,2001e5fc <_printf>
2001ee64:	ea1ff06f          	j	2001ed04 <singlestep+0x130>
2001ee68:	00412783          	lw	x15,4(x2)
2001ee6c:	20020737          	lui	x14,0x20020
2001ee70:	00478513          	addi	x10,x15,4
2001ee74:	200207b7          	lui	x15,0x20020
2001ee78:	8aa7ae23          	sw	x10,-1860(x15) # 2001f8bc <tbrk.5>
2001ee7c:	00100793          	li	x15,1
2001ee80:	8cf70223          	sb	x15,-1852(x14) # 2001f8c4 <notrace.7>
2001ee84:	e00007b7          	lui	x15,0xe0000
2001ee88:	0007a223          	sw	x0,4(x15) # e0000004 <_ebss+0xbffe073c>
2001ee8c:	fb1ff06f          	j	2001ee3c <singlestep+0x268>
2001ee90:	00100793          	li	x15,1
2001ee94:	20020737          	lui	x14,0x20020
2001ee98:	8cf70223          	sb	x15,-1852(x14) # 2001f8c4 <notrace.7>
2001ee9c:	20020737          	lui	x14,0x20020
2001eea0:	8af70c23          	sb	x15,-1864(x14) # 2001f8b8 <stopjalr.4>
2001eea4:	fe1ff06f          	j	2001ee84 <singlestep+0x2b0>
2001eea8:	00100793          	li	x15,1
2001eeac:	20020737          	lui	x14,0x20020
2001eeb0:	8cf70223          	sb	x15,-1852(x14) # 2001f8c4 <notrace.7>
2001eeb4:	00200793          	li	x15,2
2001eeb8:	20020737          	lui	x14,0x20020
2001eebc:	8af70c23          	sb	x15,-1864(x14) # 2001f8b8 <stopjalr.4>
2001eec0:	00012783          	lw	x15,0(x2)
2001eec4:	0047a703          	lw	x14,4(x15)
2001eec8:	200207b7          	lui	x15,0x20020
2001eecc:	8ae7aa23          	sw	x14,-1868(x15) # 2001f8b4 <stacklevel.3>
2001eed0:	fb5ff06f          	j	2001ee84 <singlestep+0x2b0>
2001eed4:	e0000737          	lui	x14,0xe0000
2001eed8:	0e072783          	lw	x15,224(x14) # e00000e0 <_ebss+0xbffe0818>
2001eedc:	ff77f793          	andi	x15,x15,-9
2001eee0:	0ef72023          	sw	x15,224(x14)
2001eee4:	2001f537          	lui	x10,0x2001f
2001eee8:	73450513          	addi	x10,x10,1844 # 2001f734 <btypen.8+0x370>
2001eeec:	edcff0ef          	jal	x1,2001e5c8 <_puts>
2001eef0:	f95ff06f          	j	2001ee84 <singlestep+0x2b0>
2001eef4:	00100793          	li	x15,1
2001eef8:	20020737          	lui	x14,0x20020
2001eefc:	8cf70223          	sb	x15,-1852(x14) # 2001f8c4 <notrace.7>
2001ef00:	fe5ff06f          	j	2001eee4 <singlestep+0x310>
2001ef04:	02000513          	li	x10,32
2001ef08:	9ccff0ef          	jal	x1,2001e0d4 <_putch>
2001ef0c:	00900593          	li	x11,9
2001ef10:	01410513          	addi	x10,x2,20
2001ef14:	f74ff0ef          	jal	x1,2001e688 <_getsn>
2001ef18:	20020437          	lui	x8,0x20020
2001ef1c:	00050863          	beqz	x10,2001ef2c <singlestep+0x358>
2001ef20:	01410513          	addi	x10,x2,20
2001ef24:	805ff0ef          	jal	x1,2001e728 <rdhex>
2001ef28:	8aa42823          	sw	x10,-1872(x8) # 2001f8b0 <dadd.2>
2001ef2c:	00a00513          	li	x10,10
2001ef30:	9a4ff0ef          	jal	x1,2001e0d4 <_putch>
2001ef34:	8b042703          	lw	x14,-1872(x8)
2001ef38:	fbf00793          	li	x15,-65
2001ef3c:	01100413          	li	x8,17
2001ef40:	00070493          	mv	x9,x14
2001ef44:	00e7f463          	bgeu	x15,x14,2001ef4c <singlestep+0x378>
2001ef48:	00100413          	li	x8,1
2001ef4c:	fff40413          	addi	x8,x8,-1
2001ef50:	2001f7b7          	lui	x15,0x2001f
2001ef54:	02041263          	bnez	x8,2001ef78 <singlestep+0x3a4>
2001ef58:	fbf00693          	li	x13,-65
2001ef5c:	04000793          	li	x15,64
2001ef60:	00e6f463          	bgeu	x13,x14,2001ef68 <singlestep+0x394>
2001ef64:	00000793          	li	x15,0
2001ef68:	00e787b3          	add	x15,x15,x14
2001ef6c:	20020737          	lui	x14,0x20020
2001ef70:	8af72823          	sw	x15,-1872(x14) # 2001f8b0 <dadd.2>
2001ef74:	e1dff06f          	j	2001ed90 <singlestep+0x1bc>
2001ef78:	0004a603          	lw	x12,0(x9)
2001ef7c:	00048593          	mv	x11,x9
2001ef80:	73c78513          	addi	x10,x15,1852 # 2001f73c <btypen.8+0x378>
2001ef84:	00e12823          	sw	x14,16(x2)
2001ef88:	00c12423          	sw	x12,8(x2)
2001ef8c:	e70ff0ef          	jal	x1,2001e5fc <_printf>
2001ef90:	00812603          	lw	x12,8(x2)
2001ef94:	00048593          	mv	x11,x9
2001ef98:	fff40413          	addi	x8,x8,-1
2001ef9c:	00060513          	mv	x10,x12
2001efa0:	895ff0ef          	jal	x1,2001e834 <dissasemble>
2001efa4:	01012703          	lw	x14,16(x2)
2001efa8:	00448493          	addi	x9,x9,4
2001efac:	fa5ff06f          	j	2001ef50 <singlestep+0x37c>
2001efb0:	02000513          	li	x10,32
2001efb4:	920ff0ef          	jal	x1,2001e0d4 <_putch>
2001efb8:	00900593          	li	x11,9
2001efbc:	01410513          	addi	x10,x2,20
2001efc0:	ec8ff0ef          	jal	x1,2001e688 <_getsn>
2001efc4:	20020437          	lui	x8,0x20020
2001efc8:	00050863          	beqz	x10,2001efd8 <singlestep+0x404>
2001efcc:	01410513          	addi	x10,x2,20
2001efd0:	f58ff0ef          	jal	x1,2001e728 <rdhex>
2001efd4:	8aa42623          	sw	x10,-1876(x8) # 2001f8ac <madd.1>
2001efd8:	00a00513          	li	x10,10
2001efdc:	8f8ff0ef          	jal	x1,2001e0d4 <_putch>
2001efe0:	8ac42483          	lw	x9,-1876(x8)
2001efe4:	00048513          	mv	x10,x9
2001efe8:	10048493          	addi	x9,x9,256
2001efec:	f84ff0ef          	jal	x1,2001e770 <hexdump>
2001eff0:	8a942623          	sw	x9,-1876(x8)
2001eff4:	d9dff06f          	j	2001ed90 <singlestep+0x1bc>
2001eff8:	02000513          	li	x10,32
2001effc:	8d8ff0ef          	jal	x1,2001e0d4 <_putch>
2001f000:	02000513          	li	x10,32
2001f004:	8d0ff0ef          	jal	x1,2001e0d4 <_putch>
2001f008:	00900593          	li	x11,9
2001f00c:	01410513          	addi	x10,x2,20
2001f010:	e78ff0ef          	jal	x1,2001e688 <_getsn>
2001f014:	01410513          	addi	x10,x2,20
2001f018:	f10ff0ef          	jal	x1,2001e728 <rdhex>
2001f01c:	00012783          	lw	x15,0(x2)
2001f020:	00a12223          	sw	x10,4(x2)
2001f024:	02a7ae23          	sw	x10,60(x15)
2001f028:	2001f537          	lui	x10,0x2001f
2001f02c:	75c50513          	addi	x10,x10,1884 # 2001f75c <btypen.8+0x398>
2001f030:	d98ff0ef          	jal	x1,2001e5c8 <_puts>
2001f034:	c55ff06f          	j	2001ec88 <singlestep+0xb4>
2001f038:	02000513          	li	x10,32
2001f03c:	898ff0ef          	jal	x1,2001e0d4 <_putch>
2001f040:	00900593          	li	x11,9
2001f044:	01410513          	addi	x10,x2,20
2001f048:	e40ff0ef          	jal	x1,2001e688 <_getsn>
2001f04c:	01410513          	addi	x10,x2,20
2001f050:	ed8ff0ef          	jal	x1,2001e728 <rdhex>
2001f054:	00c12783          	lw	x15,12(x2)
2001f058:	8ca7a023          	sw	x10,-1856(x15)
2001f05c:	fcdff06f          	j	2001f028 <singlestep+0x454>
2001f060:	00300593          	li	x11,3
2001f064:	01410513          	addi	x10,x2,20
2001f068:	e20ff0ef          	jal	x1,2001e688 <_getsn>
2001f06c:	01410513          	addi	x10,x2,20
2001f070:	eb8ff0ef          	jal	x1,2001e728 <rdhex>
2001f074:	00f00793          	li	x15,15
2001f078:	00050413          	mv	x8,x10
2001f07c:	00a7d463          	bge	x15,x10,2001f084 <singlestep+0x4b0>
2001f080:	ffa50413          	addi	x8,x10,-6
2001f084:	03d00513          	li	x10,61
2001f088:	84cff0ef          	jal	x1,2001e0d4 <_putch>
2001f08c:	00900593          	li	x11,9
2001f090:	01410513          	addi	x10,x2,20
2001f094:	df4ff0ef          	jal	x1,2001e688 <_getsn>
2001f098:	01410513          	addi	x10,x2,20
2001f09c:	e8cff0ef          	jal	x1,2001e728 <rdhex>
2001f0a0:	fff40793          	addi	x15,x8,-1
2001f0a4:	00e00713          	li	x14,14
2001f0a8:	f8f760e3          	bltu	x14,x15,2001f028 <singlestep+0x454>
2001f0ac:	00012783          	lw	x15,0(x2)
2001f0b0:	00241413          	slli	x8,x8,0x2
2001f0b4:	00878433          	add	x8,x15,x8
2001f0b8:	fea42e23          	sw	x10,-4(x8)
2001f0bc:	f6dff06f          	j	2001f028 <singlestep+0x454>
2001f0c0:	02000513          	li	x10,32
2001f0c4:	810ff0ef          	jal	x1,2001e0d4 <_putch>
2001f0c8:	00900593          	li	x11,9
2001f0cc:	01410513          	addi	x10,x2,20
2001f0d0:	db8ff0ef          	jal	x1,2001e688 <_getsn>
2001f0d4:	20020437          	lui	x8,0x20020
2001f0d8:	00050863          	beqz	x10,2001f0e8 <singlestep+0x514>
2001f0dc:	01410513          	addi	x10,x2,20
2001f0e0:	e48ff0ef          	jal	x1,2001e728 <rdhex>
2001f0e4:	8aa42423          	sw	x10,-1880(x8) # 2001f8a8 <wadd.0>
2001f0e8:	00a00513          	li	x10,10
2001f0ec:	fe9fe0ef          	jal	x1,2001e0d4 <_putch>
2001f0f0:	8a842483          	lw	x9,-1880(x8)
2001f0f4:	2001f7b7          	lui	x15,0x2001f
2001f0f8:	74c78513          	addi	x10,x15,1868 # 2001f74c <btypen.8+0x388>
2001f0fc:	0004c603          	lbu	x12,0(x9)
2001f100:	00048593          	mv	x11,x9
2001f104:	cf8ff0ef          	jal	x1,2001e5fc <_printf>
2001f108:	00300593          	li	x11,3
2001f10c:	01410513          	addi	x10,x2,20
2001f110:	d78ff0ef          	jal	x1,2001e688 <_getsn>
2001f114:	00a12423          	sw	x10,8(x2)
2001f118:	00a00513          	li	x10,10
2001f11c:	fb9fe0ef          	jal	x1,2001e0d4 <_putch>
2001f120:	00812703          	lw	x14,8(x2)
2001f124:	c60706e3          	beqz	x14,2001ed90 <singlestep+0x1bc>
2001f128:	01410513          	addi	x10,x2,20
2001f12c:	dfcff0ef          	jal	x1,2001e728 <rdhex>
2001f130:	00148713          	addi	x14,x9,1
2001f134:	8ae42423          	sw	x14,-1880(x8)
2001f138:	00a48023          	sb	x10,0(x9)
2001f13c:	fb5ff06f          	j	2001f0f0 <singlestep+0x51c>
2001f140:	00012703          	lw	x14,0(x2)
2001f144:	2001f7b7          	lui	x15,0x2001f
2001f148:	1b878793          	addi	x15,x15,440 # 2001f1b8 <load>
2001f14c:	02f72e23          	sw	x15,60(x14)
2001f150:	e00007b7          	lui	x15,0xe0000
2001f154:	0e07a023          	sw	x0,224(x15) # e00000e0 <_ebss+0xbffe0818>
2001f158:	ce5ff06f          	j	2001ee3c <singlestep+0x268>
2001f15c:	a6dff0ef          	jal	x1,2001ebc8 <help>
2001f160:	c31ff06f          	j	2001ed90 <singlestep+0x1bc>

2001f164 <loader>:
2001f164:	e00001b7          	lui	x3,0xe0000
2001f168:	04c00213          	li	x4,76
2001f16c:	0001c283          	lbu	x5,0(x3) # e0000000 <_ebss+0xbffe0738>
2001f170:	fe521ee3          	bne	x4,x5,2001f16c <loader+0x8>
2001f174:	00518023          	sb	x5,0(x3)
2001f178:	044000e7          	jalr	68(x0) # 0 <start-0x2001e000>
2001f17c:	00028393          	mv	x7,x5
2001f180:	044000e7          	jalr	68(x0) # 0 <start-0x2001e000>
2001f184:	00538433          	add	x8,x7,x5
2001f188:	044000e7          	jalr	68(x0) # 0 <start-0x2001e000>
2001f18c:	00028493          	mv	x9,x5
2001f190:	0100006f          	j	2001f1a0 <loader+0x3c>
2001f194:	0001c283          	lbu	x5,0(x3)
2001f198:	00538023          	sb	x5,0(x7)
2001f19c:	00138393          	addi	x7,x7,1
2001f1a0:	fe839ae3          	bne	x7,x8,2001f194 <loader+0x30>
2001f1a4:	20020137          	lui	x2,0x20020
2001f1a8:	01800213          	li	x4,24
2001f1ac:	00418223          	sb	x4,4(x3)
2001f1b0:	0e418023          	sb	x4,224(x3)
2001f1b4:	00048067          	jr	x9

2001f1b8 <load>:
2001f1b8:	2001f537          	lui	x10,0x2001f
2001f1bc:	ff410113          	addi	x2,x2,-12 # 2001fff4 <_ebss+0x72c>
2001f1c0:	76450513          	addi	x10,x10,1892 # 2001f764 <btypen.8+0x3a0>
2001f1c4:	00112423          	sw	x1,8(x2)
2001f1c8:	c00ff0ef          	jal	x1,2001e5c8 <_puts>
2001f1cc:	00812083          	lw	x1,8(x2)
2001f1d0:	00c10113          	addi	x2,x2,12
2001f1d4:	f91ff06f          	j	2001f164 <loader>

2001f1d8 <__divsi3>:
2001f1d8:	06054063          	bltz	x10,2001f238 <__umodsi3+0x10>
2001f1dc:	0605c663          	bltz	x11,2001f248 <__umodsi3+0x20>

2001f1e0 <__udivsi3>:
2001f1e0:	00058613          	mv	x12,x11
2001f1e4:	00050593          	mv	x11,x10
2001f1e8:	fff00513          	li	x10,-1
2001f1ec:	02060c63          	beqz	x12,2001f224 <__udivsi3+0x44>
2001f1f0:	00100693          	li	x13,1
2001f1f4:	00b67a63          	bgeu	x12,x11,2001f208 <__udivsi3+0x28>
2001f1f8:	00c05863          	blez	x12,2001f208 <__udivsi3+0x28>
2001f1fc:	00161613          	slli	x12,x12,0x1
2001f200:	00169693          	slli	x13,x13,0x1
2001f204:	feb66ae3          	bltu	x12,x11,2001f1f8 <__udivsi3+0x18>
2001f208:	00000513          	li	x10,0
2001f20c:	00c5e663          	bltu	x11,x12,2001f218 <__udivsi3+0x38>
2001f210:	40c585b3          	sub	x11,x11,x12
2001f214:	00d56533          	or	x10,x10,x13
2001f218:	0016d693          	srli	x13,x13,0x1
2001f21c:	00165613          	srli	x12,x12,0x1
2001f220:	fe0696e3          	bnez	x13,2001f20c <__udivsi3+0x2c>
2001f224:	00008067          	ret

2001f228 <__umodsi3>:
2001f228:	00008293          	mv	x5,x1
2001f22c:	fb5ff0ef          	jal	x1,2001f1e0 <__udivsi3>
2001f230:	00058513          	mv	x10,x11
2001f234:	00028067          	jr	x5
2001f238:	40a00533          	neg	x10,x10
2001f23c:	0005d863          	bgez	x11,2001f24c <__umodsi3+0x24>
2001f240:	40b005b3          	neg	x11,x11
2001f244:	f9dff06f          	j	2001f1e0 <__udivsi3>
2001f248:	40b005b3          	neg	x11,x11
2001f24c:	00008293          	mv	x5,x1
2001f250:	f91ff0ef          	jal	x1,2001f1e0 <__udivsi3>
2001f254:	40a00533          	neg	x10,x10
2001f258:	00028067          	jr	x5

2001f25c <__modsi3>:
2001f25c:	00008293          	mv	x5,x1
2001f260:	0005ca63          	bltz	x11,2001f274 <__modsi3+0x18>
2001f264:	00054c63          	bltz	x10,2001f27c <__modsi3+0x20>
2001f268:	f79ff0ef          	jal	x1,2001f1e0 <__udivsi3>
2001f26c:	00058513          	mv	x10,x11
2001f270:	00028067          	jr	x5
2001f274:	40b005b3          	neg	x11,x11
2001f278:	fe0558e3          	bgez	x10,2001f268 <__modsi3+0xc>
2001f27c:	40a00533          	neg	x10,x10
2001f280:	f61ff0ef          	jal	x1,2001f1e0 <__udivsi3>
2001f284:	40b00533          	neg	x10,x11
2001f288:	00028067          	jr	x5

2001f28c <main>:
2001f28c:	ff410113          	addi	x2,x2,-12
2001f290:	2001e7b7          	lui	x15,0x2001e
2001f294:	00112423          	sw	x1,8(x2)
2001f298:	03878793          	addi	x15,x15,56 # 2001e038 <debug_handler>
2001f29c:	e0000737          	lui	x14,0xe0000
2001f2a0:	0ef72823          	sw	x15,240(x14) # e00000f0 <_ebss+0xbffe0828>
2001f2a4:	2001f537          	lui	x10,0x2001f
2001f2a8:	0ef72a23          	sw	x15,244(x14)
2001f2ac:	78850513          	addi	x10,x10,1928 # 2001f788 <btypen.8+0x3c4>
2001f2b0:	b18ff0ef          	jal	x1,2001e5c8 <_puts>
2001f2b4:	915ff0ef          	jal	x1,2001ebc8 <help>
2001f2b8:	00812083          	lw	x1,8(x2)
2001f2bc:	00c10113          	addi	x2,x2,12
2001f2c0:	ef9ff06f          	j	2001f1b8 <load>
2001f2c4:	eea8                	fsw	f10,88(x13)
2001f2c6:	2001                	jal	2001f2c6 <main+0x3a>
2001f2c8:	f028                	fsw	f10,96(x8)
2001f2ca:	2001                	jal	2001f2ca <main+0x3e>
2001f2cc:	f028                	fsw	f10,96(x8)
2001f2ce:	2001                	jal	2001f2ce <main+0x42>
2001f2d0:	f028                	fsw	f10,96(x8)
2001f2d2:	2001                	jal	2001f2d2 <main+0x46>
2001f2d4:	f028                	fsw	f10,96(x8)
2001f2d6:	2001                	jal	2001f2d6 <main+0x4a>
2001f2d8:	f028                	fsw	f10,96(x8)
2001f2da:	2001                	jal	2001f2da <main+0x4e>
2001f2dc:	f028                	fsw	f10,96(x8)
2001f2de:	2001                	jal	2001f2de <main+0x52>
2001f2e0:	f028                	fsw	f10,96(x8)
2001f2e2:	2001                	jal	2001f2e2 <main+0x56>
2001f2e4:	f028                	fsw	f10,96(x8)
2001f2e6:	2001                	jal	2001f2e6 <main+0x5a>
2001f2e8:	f028                	fsw	f10,96(x8)
2001f2ea:	2001                	jal	2001f2ea <main+0x5e>
2001f2ec:	f028                	fsw	f10,96(x8)
2001f2ee:	2001                	jal	2001f2ee <main+0x62>
2001f2f0:	f028                	fsw	f10,96(x8)
2001f2f2:	2001                	jal	2001f2f2 <main+0x66>
2001f2f4:	f028                	fsw	f10,96(x8)
2001f2f6:	2001                	jal	2001f2f6 <main+0x6a>
2001f2f8:	f028                	fsw	f10,96(x8)
2001f2fa:	2001                	jal	2001f2fa <main+0x6e>
2001f2fc:	f028                	fsw	f10,96(x8)
2001f2fe:	2001                	jal	2001f2fe <main+0x72>
2001f300:	f028                	fsw	f10,96(x8)
2001f302:	2001                	jal	2001f302 <main+0x76>
2001f304:	f038                	fsw	f14,96(x8)
2001f306:	2001                	jal	2001f306 <main+0x7a>
2001f308:	eed4                	fsw	f13,28(x13)
2001f30a:	2001                	jal	2001f30a <main+0x7e>
2001f30c:	ef04                	fsw	f9,24(x14)
2001f30e:	2001                	jal	2001f30e <main+0x82>
2001f310:	eef4                	fsw	f13,92(x13)
2001f312:	2001                	jal	2001f312 <main+0x86>
2001f314:	f028                	fsw	f10,96(x8)
2001f316:	2001                	jal	2001f316 <main+0x8a>
2001f318:	eff8                	fsw	f14,92(x15)
2001f31a:	2001                	jal	2001f31a <main+0x8e>
2001f31c:	f15c                	fsw	f15,36(x10)
2001f31e:	2001                	jal	2001f31e <main+0x92>
2001f320:	f028                	fsw	f10,96(x8)
2001f322:	2001                	jal	2001f322 <main+0x96>
2001f324:	f028                	fsw	f10,96(x8)
2001f326:	2001                	jal	2001f326 <main+0x9a>
2001f328:	f028                	fsw	f10,96(x8)
2001f32a:	2001                	jal	2001f32a <main+0x9e>
2001f32c:	f140                	fsw	f8,36(x10)
2001f32e:	2001                	jal	2001f32e <main+0xa2>
2001f330:	efb0                	fsw	f12,88(x15)
2001f332:	2001                	jal	2001f332 <main+0xa6>
2001f334:	ee68                	fsw	f10,92(x12)
2001f336:	2001                	jal	2001f336 <main+0xaa>
2001f338:	f028                	fsw	f10,96(x8)
2001f33a:	2001                	jal	2001f33a <main+0xae>
2001f33c:	f028                	fsw	f10,96(x8)
2001f33e:	2001                	jal	2001f33e <main+0xb2>
2001f340:	f028                	fsw	f10,96(x8)
2001f342:	2001                	jal	2001f342 <main+0xb6>
2001f344:	ee90                	fsw	f12,24(x13)
2001f346:	2001                	jal	2001f346 <main+0xba>
2001f348:	ee84                	fsw	f9,24(x13)
2001f34a:	2001                	jal	2001f34a <main+0xbe>
2001f34c:	f028                	fsw	f10,96(x8)
2001f34e:	2001                	jal	2001f34e <main+0xc2>
2001f350:	f028                	fsw	f10,96(x8)
2001f352:	2001                	jal	2001f352 <main+0xc6>
2001f354:	f028                	fsw	f10,96(x8)
2001f356:	2001                	jal	2001f356 <main+0xca>
2001f358:	f0c0                	fsw	f8,36(x9)
2001f35a:	2001                	jal	2001f35a <main+0xce>
2001f35c:	f060                	fsw	f8,100(x8)
2001f35e:	2001                	jal	2001f35e <main+0xd2>

2001f360 <rtypen.12>:
2001f360:	f868 2001 f870 2001 f878 2001 f880 2001     h.. p.. x.. ... 
2001f370:	f888 2001 f890 2001 f898 2001 f8a0 2001     ... ... ... ... 

2001f380 <itype1n.11>:
2001f380:	f828 2001 f830 2001 f838 2001 f840 2001     (.. 0.. 8.. @.. 
2001f390:	f848 2001 f850 2001 f858 2001 f860 2001     H.. P.. X.. `.. 

2001f3a0 <itype2n.10>:
2001f3a0:	f800 2001 f808 2001 f810 2001 f7c0 2001     ... ... ... ... 
2001f3b0:	f818 2001 f820 2001                         ...  .. 

2001f3b8 <stypen.9>:
2001f3b8:	f7e8 2001 f7f0 2001 f7f8 2001               ... ... ... 

2001f3c4 <btypen.8>:
2001f3c4:	f7b0 2001 f7b8 2001 f7c0 2001 f7c0 2001     ... ... ... ... 
2001f3d4:	f7c8 2001 f7d0 2001 f7d8 2001 f7e0 2001     ... ... ... ... 
2001f3e4:	6e28 6c75 296c 0000 2008 0008 3025 7838     (null)... ..%08x
2001f3f4:	2020 0000 3025 7832 0020 0000 4245 4552       ..%02x ...EBRE
2001f404:	4b41 000a 4345 4c41 0a4c 0000 5553 2042     AK..ECALL...SUB 
2001f414:	2020 0000 5253 2041 2020 0000 2020 2558       ..SRA   ..  X%
2001f424:	2c64 5820 6425 202c 2558 0a64 0000 0000     d, X%d, X%d.....
2001f434:	5253 4941 2020 0000 2020 2558 2c64 5820     SRAI  ..  X%d, X
2001f444:	6425 202c 6425 000a 7325 2020 2558 2c64     %d, %d..%s  X%d,
2001f454:	2520 2064 5828 6425 0a29 0000 7325 2020      %d (X%d)...%s  
2001f464:	2558 2c64 5820 6425 202c 3025 7838 000a     X%d, X%d, %08x..
2001f474:	414a 524c 2020 2020 2558 2c64 2520 2064     JALR    X%d, %d 
2001f484:	5828 6425 0a29 0000 524d 5445 000a 0000     (X%d)...MRET....
2001f494:	5343 5252 2057 2020 2558 2c64 2520 3330     CSRRW   X%d, %03
2001f4a4:	2c78 5820 6425 000a 554c 2049 2020 2020     x, X%d..LUI     
2001f4b4:	2558 2c64 2520 3530 0a78 0000 5541 5049     X%d, %05x...AUIP
2001f4c4:	2043 2020 2558 2c64 2520 3530 0a78 0000     C   X%d, %05x...
2001f4d4:	414a 204c 2020 2020 2558 2c64 2520 3830     JAL     X%d, %08
2001f4e4:	0a78 0000 204a 2020 2020 2020 3025 7838     x...J       %08x
2001f4f4:	000a 0000 203f 2020 2020 000a 430a 6d6f     ....?     ...Com
2001f504:	616d 646e 3a73 200a 3a68 4809 6c65 0a70     mands:. h:.Help.
2001f514:	6320 093a 6f43 746e 6e69 6575 7720 206f      c:.Continue wo 
2001f524:	7262 6165 706b 696f 746e 2073 6628 7361     breakpoints (fas
2001f534:	2974 200a 3a65 4509 6578 7563 6574 7720     t). e:.Execute w
2001f544:	7469 2068 7262 6165 706b 696f 746e 2073     ith breakpoints 
2001f554:	7328 6f6c 2977 200a 3a73 6509 6578 7563     (slow). s:.execu
2001f564:	6574 5320 6e69 6c67 2065 6e69 7473 7572     te Single instru
2001f574:	7463 6f69 0a6e 6e20 093a 7865 6365 7475     ction. n:.execut
2001f584:	2065 6e75 6974 206c 654e 7478 6920 736e     e until Next ins
2001f594:	7274 6375 6974 6e6f 200a 3a72 6509 6578     truction. r:.exe
2001f5a4:	7563 6574 7520 746e 6c69 7320 6275 6f72     cute until subro
2001f5b4:	7475 6e69 2065 6552 7574 6e72 2820 6e61     utine Return (an
2001f5c4:	2979 200a 3a52 6509 6578 7563 6574 7520     y). R:.execute u
2001f5d4:	746e 6c69 5220 7465 7275 206e 7461 6820     ntil Return at h
2001f5e4:	6769 6568 2072 7473 6361 206b 656c 6576     igher stack leve
2001f5f4:	0a6c 6220 093a 6573 2074 7242 6165 706b     l. b:.set Breakp
2001f604:	696f 746e 200a 3a67 4709 746f 206f 6328     oint. g:.Goto (c
2001f614:	6168 676e 2065 4350 0a29 7820 093a 6863     hange PC). x:.ch
2001f624:	6e61 6567 5820 7220 6765 7369 6574 0a72     ange X register.
2001f634:	6420 093a 6944 7373 7361 6d65 6c62 0a65      d:.Dissasemble.
2001f644:	6d20 093a 654d 6f6d 7972 6420 6d75 0a70      m:.Memory dump.
2001f654:	7720 093a 656d 6f6d 7972 5720 6972 6574      w:.memory Write
2001f664:	200a 3a6c 4c09 616f 2064 6f63 6564 7420     . l:.Load code t
2001f674:	206f 6564 7562 0a67 6320 7274 2d6c 0963     o debug. ctrl-c.
2001f684:	6150 7375 7365 6520 6578 7563 6974 6e6f     Pauses execution
2001f694:	000a 0000 0a0a 2a2a 202a 5254 5041 203a     ......*** TRAP: 
2001f6a4:	0000 0000 3c0a 6170 7375 3e65 000a 0000     .....<pause>....
2001f6b4:	5b1b 4a32 5b1b 5048 3a43 2520 3830 2078     .[2J.[HPC: %08x 
2001f6c4:	2020 2020 5320 3a50 2520 3830 2078 2020          SP: %08x   
2001f6d4:	2020 2020 7262 3a6b 2520 3830 2078 2020         brk: %08x   
2001f6e4:	4e49 4554 3a4e 2520 3230 0a78 000a 0000     INTEN: %02x.....
2001f6f4:	2558 3a64 0000 0000 2020 7a20 7265 206f     X%d:....   zero 
2001f704:	0020 0000 2520 3830 0078 0000 5b1b 254a      ... %08x....[J%
2001f714:	3830 3a78 2520 3830 2078 0020 6368 7365     08x: %08x  .hces
2001f724:	726e 6252 7867 6d64 6c77 203e 0000 0000     nrRbgxdmwl> ....
2001f734:	5b1b 4a32 5b1b 0048 3025 7838 203a 3025     .[2J.[H.%08x: %0
2001f744:	7838 2020 0000 0000 255b 3830 5d78 283d     8x  ....[%08x]=(
2001f754:	3025 7832 3d29 0000 1b0d 4a5b 0000 0000     %02x)=....[J....
2001f764:	0a0a 2020 2020 2020 7055 6f6c 6461 6320     ..      Upload c
2001f774:	646f 2065 6f74 6420 6265 6775 2e2e 0a2e     ode to debug....
2001f784:	000a 0000 0a0a 6c09 5261 6156 545f 2054     .......laRVa_TT 
2001f794:	6564 7562 6767 7265 090a 4a20 202e 7241     debugger.. J. Ar
2001f7a4:	6169 2073 3228 3230 2935 000a 4542 2051     ias (2025)..BEQ 
2001f7b4:	2020 0000 4e42 2045 2020 0000 203f 2020       ..BNE   ..?   
2001f7c4:	2020 0000 4c42 2054 2020 0000 4742 2045       ..BLT   ..BGE 
2001f7d4:	2020 0000 4c42 5554 2020 0000 4742 5545       ..BLTU  ..BGEU
2001f7e4:	2020 0000 4253 2020 2020 0000 4853 2020       ..SB    ..SH  
2001f7f4:	2020 0000 5753 2020 2020 0000 424c 2020       ..SW    ..LB  
2001f804:	2020 0000 484c 2020 2020 0000 574c 2020       ..LH    ..LW  
2001f814:	2020 0000 424c 2055 2020 0000 484c 2055       ..LBU   ..LHU 
2001f824:	2020 0000 4441 4944 2020 0000 4c53 494c       ..ADDI  ..SLLI
2001f834:	2020 0000 4c53 4954 2020 0000 4c53 4954       ..SLTI  ..SLTI
2001f844:	2055 0000 4f58 4952 2020 0000 5253 494c     U ..XORI  ..SRLI
2001f854:	2020 0000 524f 2049 2020 0000 4e41 4944       ..ORI   ..ANDI
2001f864:	2020 0000 4441 2044 2020 0000 4c53 204c       ..ADD   ..SLL 
2001f874:	2020 0000 4c53 2054 2020 0000 4c53 5554       ..SLT   ..SLTU
2001f884:	2020 0000 4f58 2052 2020 0000 5253 204c       ..XOR   ..SRL 
2001f894:	2020 0000 524f 2020 2020 0000 4e41 2044       ..OR    ..AND 
2001f8a4:	2020                                           .
